
/home/wierton/plane-battle/build/plane-mips32-npc:     file format elf32-tradlittlemips


Disassembly of section .text:

10000000 <_start>:
10000000:	3c1d1800 	lui	sp,0x1800
10000004:	27bd0000 	addiu	sp,sp,0
10000008:	3c1a1000 	lui	k0,0x1000
1000000c:	275a6b98 	addiu	k0,k0,27544
10000010:	03400008 	jr	k0
10000014:	00000000 	sll	zero,zero,0x0
	...

10000020 <_ex_entry>:
10000020:	3c1a1000 	lui	k0,0x1000
10000024:	275a0030 	addiu	k0,k0,48
10000028:	03400008 	jr	k0
1000002c:	00000000 	sll	zero,zero,0x0

10000030 <_trap_entry>:
10000030:	0800000e 00000000                       ........

10000038 <intr>:
10000038:	401a6000 	mfc0	k0,c0_status
1000003c:	375a0002 	ori	k0,k0,0x2
10000040:	409a6000 	mtc0	k0,c0_status
10000044:	3c1b1000 	lui	k1,0x1000
10000048:	277b0054 	addiu	k1,k1,84
1000004c:	03600008 	jr	k1
10000050:	00000000 	sll	zero,zero,0x0

10000054 <do_irq>:
10000054:	27bdff50 	addiu	sp,sp,-176
10000058:	afa10004 	sw	at,4(sp)
1000005c:	afa20008 	sw	v0,8(sp)
10000060:	afa3000c 	sw	v1,12(sp)
10000064:	afa40010 	sw	a0,16(sp)
10000068:	afa50014 	sw	a1,20(sp)
1000006c:	afa60018 	sw	a2,24(sp)
10000070:	afa7001c 	sw	a3,28(sp)
10000074:	afa80020 	sw	t0,32(sp)
10000078:	afa90024 	sw	t1,36(sp)
1000007c:	afaa0028 	sw	t2,40(sp)
10000080:	afab002c 	sw	t3,44(sp)
10000084:	afac0030 	sw	t4,48(sp)
10000088:	afad0034 	sw	t5,52(sp)
1000008c:	afae0038 	sw	t6,56(sp)
10000090:	afaf003c 	sw	t7,60(sp)
10000094:	afb80040 	sw	t8,64(sp)
10000098:	afb90044 	sw	t9,68(sp)
1000009c:	afb00048 	sw	s0,72(sp)
100000a0:	afb1004c 	sw	s1,76(sp)
100000a4:	afb20050 	sw	s2,80(sp)
100000a8:	afb30054 	sw	s3,84(sp)
100000ac:	afb40058 	sw	s4,88(sp)
100000b0:	afb5005c 	sw	s5,92(sp)
100000b4:	afb60060 	sw	s6,96(sp)
100000b8:	afb70064 	sw	s7,100(sp)
100000bc:	afba0068 	sw	k0,104(sp)
100000c0:	afbb006c 	sw	k1,108(sp)
100000c4:	afbc0070 	sw	gp,112(sp)
100000c8:	afbd0074 	sw	sp,116(sp)
100000cc:	afbe0078 	sw	s8,120(sp)
100000d0:	afbf007c 	sw	ra,124(sp)
100000d4:	401a7000 	mfc0	k0,c0_epc
100000d8:	afba0080 	sw	k0,128(sp)
100000dc:	401a6800 	mfc0	k0,c0_cause
100000e0:	afba0084 	sw	k0,132(sp)
100000e4:	401a6000 	mfc0	k0,c0_status
100000e8:	afba0088 	sw	k0,136(sp)
100000ec:	401a4000 	mfc0	k0,c0_badvaddr
100000f0:	afba008c 	sw	k0,140(sp)
100000f4:	27a40004 	addiu	a0,sp,4
100000f8:	401a6000 	mfc0	k0,c0_status
100000fc:	401b6800 	mfc0	k1,c0_cause
10000100:	335aff00 	andi	k0,k0,0xff00
10000104:	035bd024 	and	k0,k0,k1
10000108:	1340000d 	beqz	k0,10000140 <SetMaskDone>
1000010c:	00000000 	sll	zero,zero,0x0
10000110:	001ad202 	srl	k0,k0,0x8
10000114:	241b0000 	addiu	k1,zero,0

10000118 <GetInterruptPriority>:
10000118:	001ad042 	srl	k0,k0,0x1
1000011c:	277b0001 	addiu	k1,k1,1
10000120:	1340fffd 	beqz	k0,10000118 <GetInterruptPriority>
10000124:	00000000 	sll	zero,zero,0x0
10000128:	241a0001 	addiu	k0,zero,1
1000012c:	037ad004 	sllv	k0,k0,k1
10000130:	001ad042 	srl	k0,k0,0x1
10000134:	401b6000 	mfc0	k1,c0_status
10000138:	037ad826 	xor	k1,k1,k0
1000013c:	409b6000 	mtc0	k1,c0_status

10000140 <SetMaskDone>:
10000140:	401a6000 	mfc0	k0,c0_status
10000144:	3b5a0002 	xori	k0,k0,0x2
10000148:	409a6000 	mtc0	k0,c0_status
1000014c:	0c001b24 	jal	10006c90 <irq_handle>
10000150:	00000000 	sll	zero,zero,0x0
10000154:	401a6000 	mfc0	k0,c0_status
10000158:	375a0002 	ori	k0,k0,0x2
1000015c:	409a6000 	mtc0	k0,c0_status
10000160:	8fa10004 	lw	at,4(sp)
10000164:	8fa20008 	lw	v0,8(sp)
10000168:	8fa3000c 	lw	v1,12(sp)
1000016c:	8fa40010 	lw	a0,16(sp)
10000170:	8fa50014 	lw	a1,20(sp)
10000174:	8fa60018 	lw	a2,24(sp)
10000178:	8fa7001c 	lw	a3,28(sp)
1000017c:	8fa80020 	lw	t0,32(sp)
10000180:	8fa90024 	lw	t1,36(sp)
10000184:	8faa0028 	lw	t2,40(sp)
10000188:	8fab002c 	lw	t3,44(sp)
1000018c:	8fac0030 	lw	t4,48(sp)
10000190:	8fad0034 	lw	t5,52(sp)
10000194:	8fae0038 	lw	t6,56(sp)
10000198:	8faf003c 	lw	t7,60(sp)
1000019c:	8fb80040 	lw	t8,64(sp)
100001a0:	8fb90044 	lw	t9,68(sp)
100001a4:	8fb00048 	lw	s0,72(sp)
100001a8:	8fb1004c 	lw	s1,76(sp)
100001ac:	8fb20050 	lw	s2,80(sp)
100001b0:	8fb30054 	lw	s3,84(sp)
100001b4:	8fb40058 	lw	s4,88(sp)
100001b8:	8fb5005c 	lw	s5,92(sp)
100001bc:	8fb60060 	lw	s6,96(sp)
100001c0:	8fb70064 	lw	s7,100(sp)
100001c4:	8fba0068 	lw	k0,104(sp)
100001c8:	8fbb006c 	lw	k1,108(sp)
100001cc:	8fbc0070 	lw	gp,112(sp)
100001d0:	8fbe0078 	lw	s8,120(sp)
100001d4:	8fbf007c 	lw	ra,124(sp)
100001d8:	8fbd0074 	lw	sp,116(sp)
100001dc:	8fba0080 	lw	k0,128(sp)
100001e0:	409a7000 	mtc0	k0,c0_epc
100001e4:	8fba0084 	lw	k0,132(sp)
100001e8:	409a6800 	mtc0	k0,c0_cause
100001ec:	8fba0088 	lw	k0,136(sp)
100001f0:	375a0002 	ori	k0,k0,0x2
100001f4:	409a6000 	mtc0	k0,c0_status
100001f8:	8fba008c 	lw	k0,140(sp)
100001fc:	409a4000 	mtc0	k0,c0_badvaddr
10000200:	8fba0068 	lw	k0,104(sp)
10000204:	27bd00b0 	addiu	sp,sp,176
10000208:	00000000 	sll	zero,zero,0x0
1000020c:	42000018 	eret

10000210 <build_rect>:
10000210:	3c091021 	lui	t1,0x1021
10000214:	27bdffc8 	addiu	sp,sp,-56
10000218:	25298518 	addiu	t1,t1,-31464
1000021c:	3c0a51eb 	lui	t2,0x51eb
10000220:	8d281c20 	lw	t0,7200(t1)
10000224:	afa70044 	sw	a3,68(sp)
10000228:	afbf0034 	sw	ra,52(sp)
1000022c:	afa40038 	sw	a0,56(sp)
10000230:	afa5003c 	sw	a1,60(sp)
10000234:	afa60040 	sw	a2,64(sp)
10000238:	240700c8 	addiu	a3,zero,200
1000023c:	354a851f 	ori	t2,t2,0x851f
10000240:	10000004 	beqz	zero,10000254 <build_rect+0x44>
10000244:	00000000 	sll	zero,zero,0x0
10000248:	00804025 	or	t0,a0,zero
1000024c:	10e00031 	beqz	a3,10000314 <build_rect+0x104>
10000250:	00000000 	sll	zero,zero,0x0
10000254:	25060001 	addiu	a2,t0,1
10000258:	00ca0018 	mult	a2,t2
1000025c:	000810c0 	sll	v0,t0,0x3
10000260:	00002810 	mfhi	a1
10000264:	000627c3 	sra	a0,a2,0x1f
10000268:	00051983 	sra	v1,a1,0x6
1000026c:	00481021 	addu	v0,v0,t0
10000270:	00642023 	subu	a0,v1,a0
10000274:	00021080 	sll	v0,v0,0x2
10000278:	00041840 	sll	v1,a0,0x1
1000027c:	01221021 	addu	v0,t1,v0
10000280:	00641821 	addu	v1,v1,a0
10000284:	90450001 	lbu	a1,1(v0)
10000288:	000318c0 	sll	v1,v1,0x3
1000028c:	00641821 	addu	v1,v1,a0
10000290:	00052e00 	sll	a1,a1,0x18
10000294:	000318c0 	sll	v1,v1,0x3
10000298:	00052e03 	sra	a1,a1,0x18
1000029c:	24e7ffff 	addiu	a3,a3,-1
100002a0:	00c32023 	subu	a0,a2,v1
100002a4:	14a0ffe8 	bnez	a1,10000248 <build_rect+0x38>
100002a8:	00000000 	sll	zero,zero,0x0
100002ac:	24030001 	addiu	v1,zero,1
100002b0:	ad241c20 	sw	a0,7200(t1)
100002b4:	24040052 	addiu	a0,zero,82
100002b8:	a0430001 	sb	v1,1(v0)
100002bc:	a0440000 	sb	a0,0(v0)
100002c0:	a0430001 	sb	v1,1(v0)
100002c4:	8fa30038 	lw	v1,56(sp)
100002c8:	ac430004 	sw	v1,4(v0)
100002cc:	8fa3003c 	lw	v1,60(sp)
100002d0:	ac430008 	sw	v1,8(v0)
100002d4:	8fa30040 	lw	v1,64(sp)
100002d8:	ac43000c 	sw	v1,12(v0)
100002dc:	8fa30044 	lw	v1,68(sp)
100002e0:	ac430010 	sw	v1,16(v0)
100002e4:	8fa30048 	lw	v1,72(sp)
100002e8:	ac430014 	sw	v1,20(v0)
100002ec:	8fa3004c 	lw	v1,76(sp)
100002f0:	ac430018 	sw	v1,24(v0)
100002f4:	8fa30050 	lw	v1,80(sp)
100002f8:	ac43001c 	sw	v1,28(v0)
100002fc:	8fa30054 	lw	v1,84(sp)
10000300:	ac430020 	sw	v1,32(v0)
10000304:	8fbf0034 	lw	ra,52(sp)
10000308:	27bd0038 	addiu	sp,sp,56
1000030c:	03e00008 	jr	ra
10000310:	00000000 	sll	zero,zero,0x0
10000314:	3c041000 	lui	a0,0x1000
10000318:	2484736c 	addiu	a0,a0,29548
1000031c:	ad281c20 	sw	t0,7200(t1)
10000320:	0c000cb5 	jal	100032d4 <printf>
10000324:	00000000 	sll	zero,zero,0x0
10000328:	8fbf0034 	lw	ra,52(sp)
1000032c:	00001025 	or	v0,zero,zero
10000330:	27bd0038 	addiu	sp,sp,56
10000334:	03e00008 	jr	ra
10000338:	00000000 	sll	zero,zero,0x0

1000033c <rect_delete>:
1000033c:	a0800001 	sb	zero,1(a0)
10000340:	03e00008 	jr	ra
10000344:	00000000 	sll	zero,zero,0x0

10000348 <rect_draw>:
10000348:	27bdffc8 	addiu	sp,sp,-56
1000034c:	afbf0034 	sw	ra,52(sp)
10000350:	afb10030 	sw	s1,48(sp)
10000354:	afb0002c 	sw	s0,44(sp)
10000358:	00808025 	or	s0,a0,zero
1000035c:	8c840014 	lw	a0,20(a0)
10000360:	0c000550 	jal	10001540 <color_to_int>
10000364:	00000000 	sll	zero,zero,0x0
10000368:	8e040018 	lw	a0,24(s0)
1000036c:	00408825 	or	s1,v0,zero
10000370:	0c000550 	jal	10001540 <color_to_int>
10000374:	00000000 	sll	zero,zero,0x0
10000378:	8e030010 	lw	v1,16(s0)
1000037c:	1860004a 	blez	v1,100004a8 <rect_draw+0x160>
10000380:	00000000 	sll	zero,zero,0x0
10000384:	3c071021 	lui	a3,0x1021
10000388:	00003025 	or	a2,zero,zero
1000038c:	24e7a13c 	addiu	a3,a3,-24260
10000390:	3c080100 	lui	t0,0x100
10000394:	8e03000c 	lw	v1,12(s0)
10000398:	18600028 	blez	v1,1000043c <rect_draw+0xf4>
1000039c:	00000000 	sll	zero,zero,0x0
100003a0:	00002025 	or	a0,zero,zero
100003a4:	8e03001c 	lw	v1,28(s0)
100003a8:	02202825 	or	a1,s1,zero
100003ac:	00c3182a 	slt	v1,a2,v1
100003b0:	14600017 	bnez	v1,10000410 <rect_draw+0xc8>
100003b4:	00000000 	sll	zero,zero,0x0
100003b8:	8e03001c 	lw	v1,28(s0)
100003bc:	0083182a 	slt	v1,a0,v1
100003c0:	14600013 	bnez	v1,10000410 <rect_draw+0xc8>
100003c4:	00000000 	sll	zero,zero,0x0
100003c8:	8e03001c 	lw	v1,28(s0)
100003cc:	8e050010 	lw	a1,16(s0)
100003d0:	00661821 	addu	v1,v1,a2
100003d4:	0065182a 	slt	v1,v1,a1
100003d8:	10600030 	beqz	v1,1000049c <rect_draw+0x154>
100003dc:	00000000 	sll	zero,zero,0x0
100003e0:	8e03001c 	lw	v1,28(s0)
100003e4:	8e05000c 	lw	a1,12(s0)
100003e8:	00641821 	addu	v1,v1,a0
100003ec:	0065182a 	slt	v1,v1,a1
100003f0:	1060002a 	beqz	v1,1000049c <rect_draw+0x154>
100003f4:	00000000 	sll	zero,zero,0x0
100003f8:	92050020 	lbu	a1,32(s0)
100003fc:	01001825 	or	v1,t0,zero
10000400:	00052e00 	sll	a1,a1,0x18
10000404:	00052e03 	sra	a1,a1,0x18
10000408:	0045180b 	movn	v1,v0,a1
1000040c:	00602825 	or	a1,v1,zero
10000410:	8e03000c 	lw	v1,12(s0)
10000414:	70661802 	mul	v1,v1,a2
10000418:	00641821 	addu	v1,v1,a0
1000041c:	00031880 	sll	v1,v1,0x2
10000420:	00e31821 	addu	v1,a3,v1
10000424:	ac650000 	sw	a1,0(v1)
10000428:	8e03000c 	lw	v1,12(s0)
1000042c:	24840001 	addiu	a0,a0,1
10000430:	0083182a 	slt	v1,a0,v1
10000434:	1460ffdb 	bnez	v1,100003a4 <rect_draw+0x5c>
10000438:	00000000 	sll	zero,zero,0x0
1000043c:	8e030010 	lw	v1,16(s0)
10000440:	24c60001 	addiu	a2,a2,1
10000444:	00c3182a 	slt	v1,a2,v1
10000448:	1460ffd2 	bnez	v1,10000394 <rect_draw+0x4c>
1000044c:	00000000 	sll	zero,zero,0x0
10000450:	8e060004 	lw	a2,4(s0)
10000454:	8e050008 	lw	a1,8(s0)
10000458:	8e03000c 	lw	v1,12(s0)
1000045c:	8e020010 	lw	v0,16(s0)
10000460:	27a40010 	addiu	a0,sp,16
10000464:	afa60010 	sw	a2,16(sp)
10000468:	afa50014 	sw	a1,20(sp)
1000046c:	afa70018 	sw	a3,24(sp)
10000470:	afa3001c 	sw	v1,28(sp)
10000474:	afa20020 	sw	v0,32(sp)
10000478:	afa00024 	sw	zero,36(sp)
1000047c:	0c000e8c 	jal	10003a30 <fb_add>
10000480:	00000000 	sll	zero,zero,0x0
10000484:	8fbf0034 	lw	ra,52(sp)
10000488:	8fb10030 	lw	s1,48(sp)
1000048c:	8fb0002c 	lw	s0,44(sp)
10000490:	27bd0038 	addiu	sp,sp,56
10000494:	03e00008 	jr	ra
10000498:	00000000 	sll	zero,zero,0x0
1000049c:	02202825 	or	a1,s1,zero
100004a0:	1000ffdb 	beqz	zero,10000410 <rect_draw+0xc8>
100004a4:	00000000 	sll	zero,zero,0x0
100004a8:	3c071021 	lui	a3,0x1021
100004ac:	24e7a13c 	addiu	a3,a3,-24260
100004b0:	1000ffe7 	beqz	zero,10000450 <rect_draw+0x108>
100004b4:	00000000 	sll	zero,zero,0x0

100004b8 <rect_move>:
100004b8:	8c820004 	lw	v0,4(a0)
100004bc:	00452821 	addu	a1,v0,a1
100004c0:	ac850004 	sw	a1,4(a0)
100004c4:	8c820008 	lw	v0,8(a0)
100004c8:	00463021 	addu	a2,v0,a2
100004cc:	ac860008 	sw	a2,8(a0)
100004d0:	03e00008 	jr	ra
100004d4:	00000000 	sll	zero,zero,0x0
	...

100004e0 <build_hp>:
100004e0:	3c091033 	lui	t1,0x1033
100004e4:	27bdffd0 	addiu	sp,sp,-48
100004e8:	2529b3cc 	addiu	t1,t1,-19508
100004ec:	3c0a51eb 	lui	t2,0x51eb
100004f0:	8d2815e0 	lw	t0,5600(t1)
100004f4:	afa7003c 	sw	a3,60(sp)
100004f8:	afbf002c 	sw	ra,44(sp)
100004fc:	afa40030 	sw	a0,48(sp)
10000500:	afa50034 	sw	a1,52(sp)
10000504:	afa60038 	sw	a2,56(sp)
10000508:	240700c8 	addiu	a3,zero,200
1000050c:	354a851f 	ori	t2,t2,0x851f
10000510:	10000004 	beqz	zero,10000524 <build_hp+0x44>
10000514:	00000000 	sll	zero,zero,0x0
10000518:	00804025 	or	t0,a0,zero
1000051c:	10e00032 	beqz	a3,100005e8 <build_hp+0x108>
10000520:	00000000 	sll	zero,zero,0x0
10000524:	25060001 	addiu	a2,t0,1
10000528:	00ca0018 	mult	a2,t2
1000052c:	000810c0 	sll	v0,t0,0x3
10000530:	00002810 	mfhi	a1
10000534:	000627c3 	sra	a0,a2,0x1f
10000538:	00051983 	sra	v1,a1,0x6
1000053c:	00481023 	subu	v0,v0,t0
10000540:	00642023 	subu	a0,v1,a0
10000544:	00021080 	sll	v0,v0,0x2
10000548:	00041840 	sll	v1,a0,0x1
1000054c:	01221021 	addu	v0,t1,v0
10000550:	00641821 	addu	v1,v1,a0
10000554:	90450001 	lbu	a1,1(v0)
10000558:	000318c0 	sll	v1,v1,0x3
1000055c:	00641821 	addu	v1,v1,a0
10000560:	00052e00 	sll	a1,a1,0x18
10000564:	000318c0 	sll	v1,v1,0x3
10000568:	00052e03 	sra	a1,a1,0x18
1000056c:	24e7ffff 	addiu	a3,a3,-1
10000570:	00c32023 	subu	a0,a2,v1
10000574:	14a0ffe8 	bnez	a1,10000518 <build_hp+0x38>
10000578:	00000000 	sll	zero,zero,0x0
1000057c:	8fa80030 	lw	t0,48(sp)
10000580:	8fa70034 	lw	a3,52(sp)
10000584:	8fa60038 	lw	a2,56(sp)
10000588:	8fa5003c 	lw	a1,60(sp)
1000058c:	8fa30040 	lw	v1,64(sp)
10000590:	240a0001 	addiu	t2,zero,1
10000594:	240b0068 	addiu	t3,zero,104
10000598:	a04a0001 	sb	t2,1(v0)
1000059c:	a04b0000 	sb	t3,0(v0)
100005a0:	a04a0001 	sb	t2,1(v0)
100005a4:	ac480004 	sw	t0,4(v0)
100005a8:	ac470008 	sw	a3,8(v0)
100005ac:	ac46000c 	sw	a2,12(v0)
100005b0:	ac450010 	sw	a1,16(v0)
100005b4:	ac430014 	sw	v1,20(v0)
100005b8:	8c4a0010 	lw	t2,16(v0)
100005bc:	afa80010 	sw	t0,16(sp)
100005c0:	ac4a0018 	sw	t2,24(v0)
100005c4:	8fbf002c 	lw	ra,44(sp)
100005c8:	afa70014 	sw	a3,20(sp)
100005cc:	afa60018 	sw	a2,24(sp)
100005d0:	afa5001c 	sw	a1,28(sp)
100005d4:	afa30020 	sw	v1,32(sp)
100005d8:	ad2415e0 	sw	a0,5600(t1)
100005dc:	27bd0030 	addiu	sp,sp,48
100005e0:	03e00008 	jr	ra
100005e4:	00000000 	sll	zero,zero,0x0
100005e8:	3c041000 	lui	a0,0x1000
100005ec:	248473a4 	addiu	a0,a0,29604
100005f0:	ad2815e0 	sw	t0,5600(t1)
100005f4:	0c000cb5 	jal	100032d4 <printf>
100005f8:	00000000 	sll	zero,zero,0x0
100005fc:	8fbf002c 	lw	ra,44(sp)
10000600:	00001025 	or	v0,zero,zero
10000604:	27bd0030 	addiu	sp,sp,48
10000608:	03e00008 	jr	ra
1000060c:	00000000 	sll	zero,zero,0x0

10000610 <hp_delete>:
10000610:	a0800001 	sb	zero,1(a0)
10000614:	03e00008 	jr	ra
10000618:	00000000 	sll	zero,zero,0x0

1000061c <hp_draw>:
1000061c:	27bdff80 	addiu	sp,sp,-128
10000620:	afbf007c 	sw	ra,124(sp)
10000624:	afb50078 	sw	s5,120(sp)
10000628:	afb40074 	sw	s4,116(sp)
1000062c:	afb30070 	sw	s3,112(sp)
10000630:	afb2006c 	sw	s2,108(sp)
10000634:	afb10068 	sw	s1,104(sp)
10000638:	afb00064 	sw	s0,100(sp)
1000063c:	8c91000c 	lw	s1,12(a0)
10000640:	8c930004 	lw	s3,4(a0)
10000644:	90820014 	lbu	v0,20(a0)
10000648:	8c900008 	lw	s0,8(a0)
1000064c:	00021600 	sll	v0,v0,0x18
10000650:	00021603 	sra	v0,v0,0x18
10000654:	14400053 	bnez	v0,100007a4 <hp_draw+0x188>
10000658:	00000000 	sll	zero,zero,0x0
1000065c:	2610fff6 	addiu	s0,s0,-10
10000660:	8c830018 	lw	v1,24(a0)
10000664:	8c820010 	lw	v0,16(a0)
10000668:	00033100 	sll	a2,v1,0x4
1000066c:	00c33023 	subu	a2,a2,v1
10000670:	00063040 	sll	a2,a2,0x1
10000674:	00c2001a 	div	zero,a2,v0
10000678:	2412ffff 	addiu	s2,zero,-1
1000067c:	a3a00050 	sb	zero,80(sp)
10000680:	24020001 	addiu	v0,zero,1
10000684:	a3b20051 	sb	s2,81(sp)
10000688:	a3a00052 	sb	zero,82(sp)
1000068c:	a3a00053 	sb	zero,83(sp)
10000690:	a3a2005c 	sb	v0,92(sp)
10000694:	8fa20050 	lw	v0,80(sp)
10000698:	a3a00054 	sb	zero,84(sp)
1000069c:	a3b20055 	sb	s2,85(sp)
100006a0:	a3a00056 	sb	zero,86(sp)
100006a4:	a3a00057 	sb	zero,87(sp)
100006a8:	afa20010 	sw	v0,16(sp)
100006ac:	8fa20054 	lw	v0,84(sp)
100006b0:	0011a880 	sll	s5,s1,0x2
100006b4:	afa20014 	sw	v0,20(sp)
100006b8:	8fa2005c 	lw	v0,92(sp)
100006bc:	02602025 	or	a0,s3,zero
100006c0:	02002825 	or	a1,s0,zero
100006c4:	02a03825 	or	a3,s5,zero
100006c8:	afb30040 	sw	s3,64(sp)
100006cc:	afb00044 	sw	s0,68(sp)
100006d0:	afa2001c 	sw	v0,28(sp)
100006d4:	afa00018 	sw	zero,24(sp)
100006d8:	00003012 	mflo	a2
100006dc:	70d13002 	mul	a2,a2,s1
100006e0:	0c000084 	jal	10000210 <build_rect>
100006e4:	00000000 	sll	zero,zero,0x0
100006e8:	a3a00030 	sb	zero,48(sp)
100006ec:	a3b20031 	sb	s2,49(sp)
100006f0:	a3a00032 	sb	zero,50(sp)
100006f4:	a3a00033 	sb	zero,51(sp)
100006f8:	0040a025 	or	s4,v0,zero
100006fc:	8fa20030 	lw	v0,48(sp)
10000700:	a3a00034 	sb	zero,52(sp)
10000704:	a3b20035 	sb	s2,53(sp)
10000708:	a3a00036 	sb	zero,54(sp)
1000070c:	a3a00037 	sb	zero,55(sp)
10000710:	afa20010 	sw	v0,16(sp)
10000714:	8fa20034 	lw	v0,52(sp)
10000718:	a3a0003c 	sb	zero,60(sp)
1000071c:	afa20014 	sw	v0,20(sp)
10000720:	24020001 	addiu	v0,zero,1
10000724:	afa20018 	sw	v0,24(sp)
10000728:	00113100 	sll	a2,s1,0x4
1000072c:	8fa2003c 	lw	v0,60(sp)
10000730:	00d13023 	subu	a2,a2,s1
10000734:	02002825 	or	a1,s0,zero
10000738:	02a03825 	or	a3,s5,zero
1000073c:	00063040 	sll	a2,a2,0x1
10000740:	02602025 	or	a0,s3,zero
10000744:	afa2001c 	sw	v0,28(sp)
10000748:	0c000084 	jal	10000210 <build_rect>
1000074c:	00000000 	sll	zero,zero,0x0
10000750:	00402025 	or	a0,v0,zero
10000754:	00408025 	or	s0,v0,zero
10000758:	0c0000d2 	jal	10000348 <rect_draw>
1000075c:	00000000 	sll	zero,zero,0x0
10000760:	02802025 	or	a0,s4,zero
10000764:	0c0000d2 	jal	10000348 <rect_draw>
10000768:	00000000 	sll	zero,zero,0x0
1000076c:	02802025 	or	a0,s4,zero
10000770:	0c0000cf 	jal	1000033c <rect_delete>
10000774:	00000000 	sll	zero,zero,0x0
10000778:	8fbf007c 	lw	ra,124(sp)
1000077c:	8fb50078 	lw	s5,120(sp)
10000780:	8fb40074 	lw	s4,116(sp)
10000784:	8fb30070 	lw	s3,112(sp)
10000788:	8fb2006c 	lw	s2,108(sp)
1000078c:	8fb10068 	lw	s1,104(sp)
10000790:	02002025 	or	a0,s0,zero
10000794:	8fb00064 	lw	s0,100(sp)
10000798:	27bd0080 	addiu	sp,sp,128
1000079c:	080000cf 	j	1000033c <rect_delete>
100007a0:	00000000 	sll	zero,zero,0x0
100007a4:	26100046 	addiu	s0,s0,70
100007a8:	1000ffad 	beqz	zero,10000660 <hp_draw+0x44>
100007ac:	00000000 	sll	zero,zero,0x0

100007b0 <hp_move>:
100007b0:	8c820004 	lw	v0,4(a0)
100007b4:	00452821 	addu	a1,v0,a1
100007b8:	ac850004 	sw	a1,4(a0)
100007bc:	8c820008 	lw	v0,8(a0)
100007c0:	00463021 	addu	a2,v0,a2
100007c4:	ac860008 	sw	a2,8(a0)
100007c8:	03e00008 	jr	ra
100007cc:	00000000 	sll	zero,zero,0x0

100007d0 <hp_decrease>:
100007d0:	8c820018 	lw	v0,24(a0)
100007d4:	00452823 	subu	a1,v0,a1
100007d8:	04a00004 	bltz	a1,100007ec <hp_decrease+0x1c>
100007dc:	00000000 	sll	zero,zero,0x0
100007e0:	ac850018 	sw	a1,24(a0)
100007e4:	03e00008 	jr	ra
100007e8:	00000000 	sll	zero,zero,0x0
100007ec:	ac800018 	sw	zero,24(a0)
100007f0:	03e00008 	jr	ra
100007f4:	00000000 	sll	zero,zero,0x0
	...

10000800 <build_planeX>:
10000800:	3c0a1033 	lui	t2,0x1033
10000804:	27bdffb0 	addiu	sp,sp,-80
10000808:	254ac9b0 	addiu	t2,t2,-13904
1000080c:	3c0b6666 	lui	t3,0x6666
10000810:	8d4302d0 	lw	v1,720(t2)
10000814:	afa7005c 	sw	a3,92(sp)
10000818:	afbf004c 	sw	ra,76(sp)
1000081c:	afb00048 	sw	s0,72(sp)
10000820:	afa40050 	sw	a0,80(sp)
10000824:	afa50054 	sw	a1,84(sp)
10000828:	afa60058 	sw	a2,88(sp)
1000082c:	24070014 	addiu	a3,zero,20
10000830:	256b6667 	addiu	t3,t3,26215
10000834:	10000003 	beqz	zero,10000844 <build_planeX+0x44>
10000838:	00000000 	sll	zero,zero,0x0
1000083c:	10e00045 	beqz	a3,10000954 <build_planeX+0x154>
10000840:	00000000 	sll	zero,zero,0x0
10000844:	24660001 	addiu	a2,v1,1
10000848:	00cb0018 	mult	a2,t3
1000084c:	000320c0 	sll	a0,v1,0x3
10000850:	00004810 	mfhi	t1
10000854:	00831821 	addu	v1,a0,v1
10000858:	00032080 	sll	a0,v1,0x2
1000085c:	000910c3 	sra	v0,t1,0x3
10000860:	00062fc3 	sra	a1,a2,0x1f
10000864:	00451823 	subu	v1,v0,a1
10000868:	01441021 	addu	v0,t2,a0
1000086c:	90450001 	lbu	a1,1(v0)
10000870:	00032080 	sll	a0,v1,0x2
10000874:	00831821 	addu	v1,a0,v1
10000878:	00052600 	sll	a0,a1,0x18
1000087c:	00031880 	sll	v1,v1,0x2
10000880:	00042603 	sra	a0,a0,0x18
10000884:	24e7ffff 	addiu	a3,a3,-1
10000888:	00c31823 	subu	v1,a2,v1
1000088c:	1480ffeb 	bnez	a0,1000083c <build_planeX+0x3c>
10000890:	00000000 	sll	zero,zero,0x0
10000894:	8fae0050 	lw	t6,80(sp)
10000898:	8fad0054 	lw	t5,84(sp)
1000089c:	8fac0058 	lw	t4,88(sp)
100008a0:	8fab005c 	lw	t3,92(sp)
100008a4:	8fa90060 	lw	t1,96(sp)
100008a8:	8fa80064 	lw	t0,100(sp)
100008ac:	8fa60068 	lw	a2,104(sp)
100008b0:	00408025 	or	s0,v0,zero
100008b4:	24040058 	addiu	a0,zero,88
100008b8:	24020001 	addiu	v0,zero,1
100008bc:	a2020001 	sb	v0,1(s0)
100008c0:	a2040000 	sb	a0,0(s0)
100008c4:	a2020001 	sb	v0,1(s0)
100008c8:	ae0e0004 	sw	t6,4(s0)
100008cc:	ae0d0008 	sw	t5,8(s0)
100008d0:	ae0c000c 	sw	t4,12(s0)
100008d4:	ae0b0010 	sw	t3,16(s0)
100008d8:	ae090014 	sw	t1,20(s0)
100008dc:	ae080018 	sw	t0,24(s0)
100008e0:	ae06001c 	sw	a2,28(s0)
100008e4:	8e040004 	lw	a0,4(s0)
100008e8:	8e050008 	lw	a1,8(s0)
100008ec:	a3a00044 	sb	zero,68(sp)
100008f0:	24020002 	addiu	v0,zero,2
100008f4:	8e070018 	lw	a3,24(s0)
100008f8:	afae0018 	sw	t6,24(sp)
100008fc:	afad001c 	sw	t5,28(sp)
10000900:	afac0020 	sw	t4,32(sp)
10000904:	afab0024 	sw	t3,36(sp)
10000908:	afa90028 	sw	t1,40(sp)
1000090c:	afa8002c 	sw	t0,44(sp)
10000910:	afa60030 	sw	a2,48(sp)
10000914:	afa40034 	sw	a0,52(sp)
10000918:	afa50038 	sw	a1,56(sp)
1000091c:	ad4302d0 	sw	v1,720(t2)
10000920:	afa2003c 	sw	v0,60(sp)
10000924:	8fa20044 	lw	v0,68(sp)
10000928:	24060002 	addiu	a2,zero,2
1000092c:	afa20010 	sw	v0,16(sp)
10000930:	0c000138 	jal	100004e0 <build_hp>
10000934:	00000000 	sll	zero,zero,0x0
10000938:	ae020020 	sw	v0,32(s0)
1000093c:	8fbf004c 	lw	ra,76(sp)
10000940:	02001025 	or	v0,s0,zero
10000944:	8fb00048 	lw	s0,72(sp)
10000948:	27bd0050 	addiu	sp,sp,80
1000094c:	03e00008 	jr	ra
10000950:	00000000 	sll	zero,zero,0x0
10000954:	3c041000 	lui	a0,0x1000
10000958:	248473d4 	addiu	a0,a0,29652
1000095c:	ad4302d0 	sw	v1,720(t2)
10000960:	0c000cb5 	jal	100032d4 <printf>
10000964:	00000000 	sll	zero,zero,0x0
10000968:	8fbf004c 	lw	ra,76(sp)
1000096c:	00008025 	or	s0,zero,zero
10000970:	02001025 	or	v0,s0,zero
10000974:	8fb00048 	lw	s0,72(sp)
10000978:	27bd0050 	addiu	sp,sp,80
1000097c:	03e00008 	jr	ra
10000980:	00000000 	sll	zero,zero,0x0

10000984 <planeX_delete>:
10000984:	27bdffe8 	addiu	sp,sp,-24
10000988:	afb00010 	sw	s0,16(sp)
1000098c:	afbf0014 	sw	ra,20(sp)
10000990:	00808025 	or	s0,a0,zero
10000994:	8c840020 	lw	a0,32(a0)
10000998:	0c000184 	jal	10000610 <hp_delete>
1000099c:	00000000 	sll	zero,zero,0x0
100009a0:	a2000001 	sb	zero,1(s0)
100009a4:	8fbf0014 	lw	ra,20(sp)
100009a8:	8fb00010 	lw	s0,16(sp)
100009ac:	27bd0018 	addiu	sp,sp,24
100009b0:	03e00008 	jr	ra
100009b4:	00000000 	sll	zero,zero,0x0

100009b8 <planeX_draw>:
100009b8:	27bdffa8 	addiu	sp,sp,-88
100009bc:	afb60048 	sw	s6,72(sp)
100009c0:	afb40040 	sw	s4,64(sp)
100009c4:	afb20038 	sw	s2,56(sp)
100009c8:	afbf0054 	sw	ra,84(sp)
100009cc:	afbe0050 	sw	s8,80(sp)
100009d0:	afb7004c 	sw	s7,76(sp)
100009d4:	afb50044 	sw	s5,68(sp)
100009d8:	afb3003c 	sw	s3,60(sp)
100009dc:	afb10034 	sw	s1,52(sp)
100009e0:	afb00030 	sw	s0,48(sp)
100009e4:	afa40058 	sw	a0,88(sp)
100009e8:	8c840020 	lw	a0,32(a0)
100009ec:	0c000187 	jal	1000061c <hp_draw>
100009f0:	00000000 	sll	zero,zero,0x0
100009f4:	3c02100e 	lui	v0,0x100e
100009f8:	8c526fb4 	lw	s2,28596(v0)
100009fc:	8e560016 	lw	s6,22(s2)
10000a00:	8e540012 	lw	s4,18(s2)
10000a04:	1ac0004b 	blez	s6,10000b34 <planeX_draw+0x17c>
10000a08:	00000000 	sll	zero,zero,0x0
10000a0c:	3c021021 	lui	v0,0x1021
10000a10:	2445a13c 	addiu	a1,v0,-24260
10000a14:	0014a840 	sll	s5,s4,0x1
10000a18:	00141080 	sll	v0,s4,0x2
10000a1c:	afa5002c 	sw	a1,44(sp)
10000a20:	02b4a821 	addu	s5,s5,s4
10000a24:	26520036 	addiu	s2,s2,54
10000a28:	afa20028 	sw	v0,40(sp)
10000a2c:	00009825 	or	s3,zero,zero
10000a30:	24100001 	addiu	s0,zero,1
10000a34:	8fa20028 	lw	v0,40(sp)
10000a38:	00a28821 	addu	s1,a1,v0
10000a3c:	1a800015 	blez	s4,10000a94 <planeX_draw+0xdc>
10000a40:	00000000 	sll	zero,zero,0x0
10000a44:	00a0b825 	or	s7,a1,zero
10000a48:	0240f025 	or	s8,s2,zero
10000a4c:	93c20000 	lbu	v0,0(s8)
10000a50:	a3a20010 	sb	v0,16(sp)
10000a54:	93c20001 	lbu	v0,1(s8)
10000a58:	a3a20011 	sb	v0,17(sp)
10000a5c:	93c20002 	lbu	v0,2(s8)
10000a60:	a3a20012 	sb	v0,18(sp)
10000a64:	93a20010 	lbu	v0,16(sp)
10000a68:	12020029 	beq	s0,v0,10000b10 <planeX_draw+0x158>
10000a6c:	00000000 	sll	zero,zero,0x0
10000a70:	a3a00013 	sb	zero,19(sp)
10000a74:	8fa40010 	lw	a0,16(sp)
10000a78:	26f70004 	addiu	s7,s7,4
10000a7c:	0c000550 	jal	10001540 <color_to_int>
10000a80:	00000000 	sll	zero,zero,0x0
10000a84:	aee2fffc 	sw	v0,-4(s7)
10000a88:	27de0003 	addiu	s8,s8,3
10000a8c:	16f1ffef 	bne	s7,s1,10000a4c <planeX_draw+0x94>
10000a90:	00000000 	sll	zero,zero,0x0
10000a94:	26730001 	addiu	s3,s3,1
10000a98:	02559021 	addu	s2,s2,s5
10000a9c:	02202825 	or	a1,s1,zero
10000aa0:	16d3ffe4 	bne	s6,s3,10000a34 <planeX_draw+0x7c>
10000aa4:	00000000 	sll	zero,zero,0x0
10000aa8:	8fa20058 	lw	v0,88(sp)
10000aac:	27a40010 	addiu	a0,sp,16
10000ab0:	8c430004 	lw	v1,4(v0)
10000ab4:	8c420008 	lw	v0,8(v0)
10000ab8:	afb4001c 	sw	s4,28(sp)
10000abc:	afa20014 	sw	v0,20(sp)
10000ac0:	8fa2002c 	lw	v0,44(sp)
10000ac4:	afb60020 	sw	s6,32(sp)
10000ac8:	afa30010 	sw	v1,16(sp)
10000acc:	afa20018 	sw	v0,24(sp)
10000ad0:	afa00024 	sw	zero,36(sp)
10000ad4:	0c000e8c 	jal	10003a30 <fb_add>
10000ad8:	00000000 	sll	zero,zero,0x0
10000adc:	8fbf0054 	lw	ra,84(sp)
10000ae0:	8fbe0050 	lw	s8,80(sp)
10000ae4:	8fb7004c 	lw	s7,76(sp)
10000ae8:	8fb60048 	lw	s6,72(sp)
10000aec:	8fb50044 	lw	s5,68(sp)
10000af0:	8fb40040 	lw	s4,64(sp)
10000af4:	8fb3003c 	lw	s3,60(sp)
10000af8:	8fb20038 	lw	s2,56(sp)
10000afc:	8fb10034 	lw	s1,52(sp)
10000b00:	8fb00030 	lw	s0,48(sp)
10000b04:	27bd0058 	addiu	sp,sp,88
10000b08:	03e00008 	jr	ra
10000b0c:	00000000 	sll	zero,zero,0x0
10000b10:	93a20011 	lbu	v0,17(sp)
10000b14:	1602ffd6 	bne	s0,v0,10000a70 <planeX_draw+0xb8>
10000b18:	00000000 	sll	zero,zero,0x0
10000b1c:	93a20012 	lbu	v0,18(sp)
10000b20:	1602ffd3 	bne	s0,v0,10000a70 <planeX_draw+0xb8>
10000b24:	00000000 	sll	zero,zero,0x0
10000b28:	a3b00013 	sb	s0,19(sp)
10000b2c:	1000ffd1 	beqz	zero,10000a74 <planeX_draw+0xbc>
10000b30:	00000000 	sll	zero,zero,0x0
10000b34:	3c021021 	lui	v0,0x1021
10000b38:	2442a13c 	addiu	v0,v0,-24260
10000b3c:	afa2002c 	sw	v0,44(sp)
10000b40:	1000ffd9 	beqz	zero,10000aa8 <planeX_draw+0xf0>
10000b44:	00000000 	sll	zero,zero,0x0

10000b48 <planeX_move>:
10000b48:	8c830004 	lw	v1,4(a0)
10000b4c:	00801025 	or	v0,a0,zero
10000b50:	00651821 	addu	v1,v1,a1
10000b54:	8c840020 	lw	a0,32(a0)
10000b58:	ac430004 	sw	v1,4(v0)
10000b5c:	8c430008 	lw	v1,8(v0)
10000b60:	00661821 	addu	v1,v1,a2
10000b64:	ac430008 	sw	v1,8(v0)
10000b68:	080001ec 	j	100007b0 <hp_move>
10000b6c:	00000000 	sll	zero,zero,0x0

10000b70 <planeX_locate>:
10000b70:	8c820004 	lw	v0,4(a0)
10000b74:	aca20000 	sw	v0,0(a1)
10000b78:	8c830008 	lw	v1,8(a0)
10000b7c:	3c02100e 	lui	v0,0x100e
10000b80:	8c426fb4 	lw	v0,28596(v0)
10000b84:	aca30004 	sw	v1,4(a1)
10000b88:	8c430012 	lw	v1,18(v0)
10000b8c:	aca30008 	sw	v1,8(a1)
10000b90:	8c420016 	lw	v0,22(v0)
10000b94:	aca2000c 	sw	v0,12(a1)
10000b98:	03e00008 	jr	ra
10000b9c:	00000000 	sll	zero,zero,0x0

10000ba0 <planeX_automove>:
10000ba0:	8c85000c 	lw	a1,12(a0)
10000ba4:	8c830004 	lw	v1,4(a0)
10000ba8:	00801025 	or	v0,a0,zero
10000bac:	00651821 	addu	v1,v1,a1
10000bb0:	8c840020 	lw	a0,32(a0)
10000bb4:	ac430004 	sw	v1,4(v0)
10000bb8:	8c450010 	lw	a1,16(v0)
10000bbc:	8c430008 	lw	v1,8(v0)
10000bc0:	00651821 	addu	v1,v1,a1
10000bc4:	ac430008 	sw	v1,8(v0)
10000bc8:	8c45000c 	lw	a1,12(v0)
10000bcc:	8c460010 	lw	a2,16(v0)
10000bd0:	080001ec 	j	100007b0 <hp_move>
10000bd4:	00000000 	sll	zero,zero,0x0

10000bd8 <planeX_hurt>:
10000bd8:	8c840020 	lw	a0,32(a0)
10000bdc:	080001f4 	j	100007d0 <hp_decrease>
10000be0:	00000000 	sll	zero,zero,0x0

10000be4 <planeX_isCrash>:
10000be4:	8c820020 	lw	v0,32(a0)
10000be8:	8c420018 	lw	v0,24(v0)
10000bec:	28420001 	slti	v0,v0,1
10000bf0:	03e00008 	jr	ra
10000bf4:	00000000 	sll	zero,zero,0x0

10000bf8 <planeX_get_attack>:
10000bf8:	8c82001c 	lw	v0,28(a0)
10000bfc:	03e00008 	jr	ra
10000c00:	00000000 	sll	zero,zero,0x0

10000c04 <planeX_set_attack>:
10000c04:	ac85001c 	sw	a1,28(a0)
10000c08:	03e00008 	jr	ra
10000c0c:	00000000 	sll	zero,zero,0x0

10000c10 <planeX_get_hp>:
10000c10:	8c820020 	lw	v0,32(a0)
10000c14:	8c420018 	lw	v0,24(v0)
10000c18:	03e00008 	jr	ra
10000c1c:	00000000 	sll	zero,zero,0x0

10000c20 <build_bigExplosion3>:
10000c20:	3c081033 	lui	t0,0x1033
10000c24:	27bdffd0 	addiu	sp,sp,-48
10000c28:	2508cc84 	addiu	t0,t0,-13180
10000c2c:	3c096666 	lui	t1,0x6666
10000c30:	8d0301e0 	lw	v1,480(t0)
10000c34:	afa7003c 	sw	a3,60(sp)
10000c38:	afbf002c 	sw	ra,44(sp)
10000c3c:	afa40030 	sw	a0,48(sp)
10000c40:	afa50034 	sw	a1,52(sp)
10000c44:	afa60038 	sw	a2,56(sp)
10000c48:	24070014 	addiu	a3,zero,20
10000c4c:	25296667 	addiu	t1,t1,26215
10000c50:	10000003 	beqz	zero,10000c60 <build_bigExplosion3+0x40>
10000c54:	00000000 	sll	zero,zero,0x0
10000c58:	10e00029 	beqz	a3,10000d00 <build_bigExplosion3+0xe0>
10000c5c:	00000000 	sll	zero,zero,0x0
10000c60:	24660001 	addiu	a2,v1,1
10000c64:	00c90018 	mult	a2,t1
10000c68:	00031040 	sll	v0,v1,0x1
10000c6c:	00002810 	mfhi	a1
10000c70:	00431021 	addu	v0,v0,v1
10000c74:	000210c0 	sll	v0,v0,0x3
10000c78:	000520c3 	sra	a0,a1,0x3
10000c7c:	00061fc3 	sra	v1,a2,0x1f
10000c80:	01021021 	addu	v0,t0,v0
10000c84:	00831823 	subu	v1,a0,v1
10000c88:	90450001 	lbu	a1,1(v0)
10000c8c:	00032080 	sll	a0,v1,0x2
10000c90:	00831821 	addu	v1,a0,v1
10000c94:	00052600 	sll	a0,a1,0x18
10000c98:	00031880 	sll	v1,v1,0x2
10000c9c:	00042603 	sra	a0,a0,0x18
10000ca0:	24e7ffff 	addiu	a3,a3,-1
10000ca4:	00c31823 	subu	v1,a2,v1
10000ca8:	1480ffeb 	bnez	a0,10000c58 <build_bigExplosion3+0x38>
10000cac:	00000000 	sll	zero,zero,0x0
10000cb0:	24040001 	addiu	a0,zero,1
10000cb4:	ad0301e0 	sw	v1,480(t0)
10000cb8:	24030033 	addiu	v1,zero,51
10000cbc:	a0440001 	sb	a0,1(v0)
10000cc0:	a0430000 	sb	v1,0(v0)
10000cc4:	8fa30030 	lw	v1,48(sp)
10000cc8:	a0440001 	sb	a0,1(v0)
10000ccc:	ac430004 	sw	v1,4(v0)
10000cd0:	8fa30034 	lw	v1,52(sp)
10000cd4:	ac430008 	sw	v1,8(v0)
10000cd8:	8fa30038 	lw	v1,56(sp)
10000cdc:	ac43000c 	sw	v1,12(v0)
10000ce0:	8fa3003c 	lw	v1,60(sp)
10000ce4:	ac430010 	sw	v1,16(v0)
10000ce8:	8fa30040 	lw	v1,64(sp)
10000cec:	ac430014 	sw	v1,20(v0)
10000cf0:	8fbf002c 	lw	ra,44(sp)
10000cf4:	27bd0030 	addiu	sp,sp,48
10000cf8:	03e00008 	jr	ra
10000cfc:	00000000 	sll	zero,zero,0x0
10000d00:	3c041000 	lui	a0,0x1000
10000d04:	24847408 	addiu	a0,a0,29704
10000d08:	ad0301e0 	sw	v1,480(t0)
10000d0c:	0c000cb5 	jal	100032d4 <printf>
10000d10:	00000000 	sll	zero,zero,0x0
10000d14:	8fbf002c 	lw	ra,44(sp)
10000d18:	00001025 	or	v0,zero,zero
10000d1c:	27bd0030 	addiu	sp,sp,48
10000d20:	03e00008 	jr	ra
10000d24:	00000000 	sll	zero,zero,0x0

10000d28 <bigExplosion3_delete>:
10000d28:	a0800001 	sb	zero,1(a0)
10000d2c:	03e00008 	jr	ra
10000d30:	00000000 	sll	zero,zero,0x0

10000d34 <bigExplosion3_draw>:
10000d34:	3c02100e 	lui	v0,0x100e
10000d38:	27bdff98 	addiu	sp,sp,-104
10000d3c:	8c456fa0 	lw	a1,28576(v0)
10000d40:	3c03100e 	lui	v1,0x100e
10000d44:	24636fc0 	addiu	v1,v1,28608
10000d48:	afb7005c 	sw	s7,92(sp)
10000d4c:	afb60058 	sw	s6,88(sp)
10000d50:	afb50054 	sw	s5,84(sp)
10000d54:	afb40050 	sw	s4,80(sp)
10000d58:	afb3004c 	sw	s3,76(sp)
10000d5c:	afb20048 	sw	s2,72(sp)
10000d60:	afb10044 	sw	s1,68(sp)
10000d64:	afb00040 	sw	s0,64(sp)
10000d68:	afbf0064 	sw	ra,100(sp)
10000d6c:	afbe0060 	sw	s8,96(sp)
10000d70:	8ca60012 	lw	a2,18(a1)
10000d74:	8c620184 	lw	v0,388(v1)
10000d78:	8c670188 	lw	a3,392(v1)
10000d7c:	70c28002 	mul	s0,a2,v0
10000d80:	8c620180 	lw	v0,384(v1)
10000d84:	8c68018c 	lw	t0,396(v1)
10000d88:	00e21021 	addu	v0,a3,v0
10000d8c:	00501021 	addu	v0,v0,s0
10000d90:	00028040 	sll	s0,v0,0x1
10000d94:	02028021 	addu	s0,s0,v0
10000d98:	0007b880 	sll	s7,a3,0x2
10000d9c:	3c021021 	lui	v0,0x1021
10000da0:	2453a13c 	addiu	s3,v0,-24260
10000da4:	00f7a023 	subu	s4,a3,s7
10000da8:	25020001 	addiu	v0,t0,1
10000dac:	0006a840 	sll	s5,a2,0x1
10000db0:	24a50003 	addiu	a1,a1,3
10000db4:	afa20028 	sw	v0,40(sp)
10000db8:	2682fffd 	addiu	v0,s4,-3
10000dbc:	afa70030 	sw	a3,48(sp)
10000dc0:	afa80034 	sw	t0,52(sp)
10000dc4:	afb30038 	sw	s3,56(sp)
10000dc8:	afa40068 	sw	a0,104(sp)
10000dcc:	02a6a821 	addu	s5,s5,a2
10000dd0:	02058021 	addu	s0,s0,a1
10000dd4:	00009025 	or	s2,zero,zero
10000dd8:	afa2002c 	sw	v0,44(sp)
10000ddc:	241100ff 	addiu	s1,zero,255
10000de0:	24160001 	addiu	s6,zero,1
10000de4:	8fa2002c 	lw	v0,44(sp)
10000de8:	0260f025 	or	s8,s3,zero
10000dec:	0050a021 	addu	s4,v0,s0
10000df0:	92820036 	lbu	v0,54(s4)
10000df4:	a3a20010 	sb	v0,16(sp)
10000df8:	92820037 	lbu	v0,55(s4)
10000dfc:	a3a20011 	sb	v0,17(sp)
10000e00:	92820038 	lbu	v0,56(s4)
10000e04:	a3a20012 	sb	v0,18(sp)
10000e08:	93a20010 	lbu	v0,16(sp)
10000e0c:	1222002c 	beq	s1,v0,10000ec0 <bigExplosion3_draw+0x18c>
10000e10:	00000000 	sll	zero,zero,0x0
10000e14:	a3a00013 	sb	zero,19(sp)
10000e18:	8fa40010 	lw	a0,16(sp)
10000e1c:	26940003 	addiu	s4,s4,3
10000e20:	0c000550 	jal	10001540 <color_to_int>
10000e24:	00000000 	sll	zero,zero,0x0
10000e28:	afc20000 	sw	v0,0(s8)
10000e2c:	27de0004 	addiu	s8,s8,4
10000e30:	1614ffef 	bne	s0,s4,10000df0 <bigExplosion3_draw+0xbc>
10000e34:	00000000 	sll	zero,zero,0x0
10000e38:	8fa20028 	lw	v0,40(sp)
10000e3c:	26520001 	addiu	s2,s2,1
10000e40:	02158021 	addu	s0,s0,s5
10000e44:	02779821 	addu	s3,s3,s7
10000e48:	1642ffe6 	bne	s2,v0,10000de4 <bigExplosion3_draw+0xb0>
10000e4c:	00000000 	sll	zero,zero,0x0
10000e50:	8fa20068 	lw	v0,104(sp)
10000e54:	27a40010 	addiu	a0,sp,16
10000e58:	8c430004 	lw	v1,4(v0)
10000e5c:	8c420008 	lw	v0,8(v0)
10000e60:	afa30010 	sw	v1,16(sp)
10000e64:	afa20014 	sw	v0,20(sp)
10000e68:	8fa20038 	lw	v0,56(sp)
10000e6c:	afa00024 	sw	zero,36(sp)
10000e70:	afa20018 	sw	v0,24(sp)
10000e74:	8fa20030 	lw	v0,48(sp)
10000e78:	afa2001c 	sw	v0,28(sp)
10000e7c:	8fa20034 	lw	v0,52(sp)
10000e80:	afa20020 	sw	v0,32(sp)
10000e84:	0c000e8c 	jal	10003a30 <fb_add>
10000e88:	00000000 	sll	zero,zero,0x0
10000e8c:	8fbf0064 	lw	ra,100(sp)
10000e90:	8fbe0060 	lw	s8,96(sp)
10000e94:	8fb7005c 	lw	s7,92(sp)
10000e98:	8fb60058 	lw	s6,88(sp)
10000e9c:	8fb50054 	lw	s5,84(sp)
10000ea0:	8fb40050 	lw	s4,80(sp)
10000ea4:	8fb3004c 	lw	s3,76(sp)
10000ea8:	8fb20048 	lw	s2,72(sp)
10000eac:	8fb10044 	lw	s1,68(sp)
10000eb0:	8fb00040 	lw	s0,64(sp)
10000eb4:	27bd0068 	addiu	sp,sp,104
10000eb8:	03e00008 	jr	ra
10000ebc:	00000000 	sll	zero,zero,0x0
10000ec0:	93a20011 	lbu	v0,17(sp)
10000ec4:	304200ff 	andi	v0,v0,0xff
10000ec8:	1440ffd2 	bnez	v0,10000e14 <bigExplosion3_draw+0xe0>
10000ecc:	00000000 	sll	zero,zero,0x0
10000ed0:	93a20012 	lbu	v0,18(sp)
10000ed4:	1622ffcf 	bne	s1,v0,10000e14 <bigExplosion3_draw+0xe0>
10000ed8:	00000000 	sll	zero,zero,0x0
10000edc:	a3b60010 	sb	s6,16(sp)
10000ee0:	a3b60011 	sb	s6,17(sp)
10000ee4:	a3b60012 	sb	s6,18(sp)
10000ee8:	a3b60013 	sb	s6,19(sp)
10000eec:	1000ffca 	beqz	zero,10000e18 <bigExplosion3_draw+0xe4>
10000ef0:	00000000 	sll	zero,zero,0x0

10000ef4 <bigExplosion3_move>:
10000ef4:	8c820004 	lw	v0,4(a0)
10000ef8:	00452821 	addu	a1,v0,a1
10000efc:	ac850004 	sw	a1,4(a0)
10000f00:	8c820008 	lw	v0,8(a0)
10000f04:	00463021 	addu	a2,v0,a2
10000f08:	ac860008 	sw	a2,8(a0)
10000f0c:	03e00008 	jr	ra
10000f10:	00000000 	sll	zero,zero,0x0

10000f14 <bigExplosion3_automove>:
10000f14:	8c83000c 	lw	v1,12(a0)
10000f18:	8c820004 	lw	v0,4(a0)
10000f1c:	00431021 	addu	v0,v0,v1
10000f20:	ac820004 	sw	v0,4(a0)
10000f24:	8c830010 	lw	v1,16(a0)
10000f28:	8c820008 	lw	v0,8(a0)
10000f2c:	00431021 	addu	v0,v0,v1
10000f30:	ac820008 	sw	v0,8(a0)
10000f34:	03e00008 	jr	ra
10000f38:	00000000 	sll	zero,zero,0x0
10000f3c:	00000000 	sll	zero,zero,0x0

10000f40 <getdev.part.0>:
10000f40:	27bdffe0 	addiu	sp,sp,-32
10000f44:	afb20018 	sw	s2,24(sp)
10000f48:	afb10014 	sw	s1,20(sp)
10000f4c:	afb00010 	sw	s0,16(sp)
10000f50:	afbf001c 	sw	ra,28(sp)
10000f54:	00809025 	or	s2,a0,zero
10000f58:	00a08825 	or	s1,a1,zero
10000f5c:	24100001 	addiu	s0,zero,1
10000f60:	02002025 	or	a0,s0,zero
10000f64:	0c001c8a 	jal	10007228 <_device>
10000f68:	00000000 	sll	zero,zero,0x0
10000f6c:	8c440000 	lw	a0,0(v0)
10000f70:	26100001 	addiu	s0,s0,1
10000f74:	1491fffa 	bne	a0,s1,10000f60 <getdev.part.0+0x20>
10000f78:	00000000 	sll	zero,zero,0x0
10000f7c:	ae420000 	sw	v0,0(s2)
10000f80:	8fbf001c 	lw	ra,28(sp)
10000f84:	8fb20018 	lw	s2,24(sp)
10000f88:	8fb10014 	lw	s1,20(sp)
10000f8c:	8fb00010 	lw	s0,16(sp)
10000f90:	27bd0020 	addiu	sp,sp,32
10000f94:	03e00008 	jr	ra
10000f98:	00000000 	sll	zero,zero,0x0

10000f9c <uptime>:
10000f9c:	3c041021 	lui	a0,0x1021
10000fa0:	8c828504 	lw	v0,-31484(a0)
10000fa4:	27bdffe0 	addiu	sp,sp,-32
10000fa8:	afbf001c 	sw	ra,28(sp)
10000fac:	1040000c 	beqz	v0,10000fe0 <uptime+0x44>
10000fb0:	00000000 	sll	zero,zero,0x0
10000fb4:	8c420008 	lw	v0,8(v0)
10000fb8:	27a50010 	addiu	a1,sp,16
10000fbc:	24060008 	addiu	a2,zero,8
10000fc0:	24040001 	addiu	a0,zero,1
10000fc4:	0040f809 	jalr	v0
10000fc8:	00000000 	sll	zero,zero,0x0
10000fcc:	8fbf001c 	lw	ra,28(sp)
10000fd0:	8fa20014 	lw	v0,20(sp)
10000fd4:	27bd0020 	addiu	sp,sp,32
10000fd8:	03e00008 	jr	ra
10000fdc:	00000000 	sll	zero,zero,0x0
10000fe0:	3405ac03 	ori	a1,zero,0xac03
10000fe4:	24848504 	addiu	a0,a0,-31484
10000fe8:	0c0003d0 	jal	10000f40 <getdev.part.0>
10000fec:	00000000 	sll	zero,zero,0x0
10000ff0:	8c420008 	lw	v0,8(v0)
10000ff4:	27a50010 	addiu	a1,sp,16
10000ff8:	24060008 	addiu	a2,zero,8
10000ffc:	24040001 	addiu	a0,zero,1
10001000:	0040f809 	jalr	v0
10001004:	00000000 	sll	zero,zero,0x0
10001008:	8fbf001c 	lw	ra,28(sp)
1000100c:	8fa20014 	lw	v0,20(sp)
10001010:	27bd0020 	addiu	sp,sp,32
10001014:	03e00008 	jr	ra
10001018:	00000000 	sll	zero,zero,0x0

1000101c <read_key>:
1000101c:	3c031021 	lui	v1,0x1021
10001020:	8c62850c 	lw	v0,-31476(v1)
10001024:	27bdffe0 	addiu	sp,sp,-32
10001028:	afb00018 	sw	s0,24(sp)
1000102c:	afbf001c 	sw	ra,28(sp)
10001030:	00808025 	or	s0,a0,zero
10001034:	10400011 	beqz	v0,1000107c <read_key+0x60>
10001038:	00000000 	sll	zero,zero,0x0
1000103c:	8c420008 	lw	v0,8(v0)
10001040:	27a50010 	addiu	a1,sp,16
10001044:	24060008 	addiu	a2,zero,8
10001048:	24040001 	addiu	a0,zero,1
1000104c:	0040f809 	jalr	v0
10001050:	00000000 	sll	zero,zero,0x0
10001054:	8fa20010 	lw	v0,16(sp)
10001058:	ae020000 	sw	v0,0(s0)
1000105c:	8fa20014 	lw	v0,20(sp)
10001060:	ae020004 	sw	v0,4(s0)
10001064:	8fbf001c 	lw	ra,28(sp)
10001068:	02001025 	or	v0,s0,zero
1000106c:	8fb00018 	lw	s0,24(sp)
10001070:	27bd0020 	addiu	sp,sp,32
10001074:	03e00008 	jr	ra
10001078:	00000000 	sll	zero,zero,0x0
1000107c:	2464850c 	addiu	a0,v1,-31476
10001080:	3405ac02 	ori	a1,zero,0xac02
10001084:	0c0003d0 	jal	10000f40 <getdev.part.0>
10001088:	00000000 	sll	zero,zero,0x0
1000108c:	8c420008 	lw	v0,8(v0)
10001090:	27a50010 	addiu	a1,sp,16
10001094:	24060008 	addiu	a2,zero,8
10001098:	24040001 	addiu	a0,zero,1
1000109c:	0040f809 	jalr	v0
100010a0:	00000000 	sll	zero,zero,0x0
100010a4:	8fa20010 	lw	v0,16(sp)
100010a8:	ae020000 	sw	v0,0(s0)
100010ac:	8fa20014 	lw	v0,20(sp)
100010b0:	ae020004 	sw	v0,4(s0)
100010b4:	8fbf001c 	lw	ra,28(sp)
100010b8:	02001025 	or	v0,s0,zero
100010bc:	8fb00018 	lw	s0,24(sp)
100010c0:	27bd0020 	addiu	sp,sp,32
100010c4:	03e00008 	jr	ra
100010c8:	00000000 	sll	zero,zero,0x0

100010cc <video_draw>:
100010cc:	3c031021 	lui	v1,0x1021
100010d0:	8c628508 	lw	v0,-31480(v1)
100010d4:	27bdffe8 	addiu	sp,sp,-24
100010d8:	afbf0014 	sw	ra,20(sp)
100010dc:	afa40018 	sw	a0,24(sp)
100010e0:	afa5001c 	sw	a1,28(sp)
100010e4:	afa60020 	sw	a2,32(sp)
100010e8:	afa70024 	sw	a3,36(sp)
100010ec:	1040000b 	beqz	v0,1000111c <video_draw+0x50>
100010f0:	00000000 	sll	zero,zero,0x0
100010f4:	8c42000c 	lw	v0,12(v0)
100010f8:	27a50018 	addiu	a1,sp,24
100010fc:	24060018 	addiu	a2,zero,24
10001100:	24040002 	addiu	a0,zero,2
10001104:	0040f809 	jalr	v0
10001108:	00000000 	sll	zero,zero,0x0
1000110c:	8fbf0014 	lw	ra,20(sp)
10001110:	27bd0018 	addiu	sp,sp,24
10001114:	03e00008 	jr	ra
10001118:	00000000 	sll	zero,zero,0x0
1000111c:	24648508 	addiu	a0,v1,-31480
10001120:	3405ac04 	ori	a1,zero,0xac04
10001124:	0c0003d0 	jal	10000f40 <getdev.part.0>
10001128:	00000000 	sll	zero,zero,0x0
1000112c:	8c42000c 	lw	v0,12(v0)
10001130:	27a50018 	addiu	a1,sp,24
10001134:	24060018 	addiu	a2,zero,24
10001138:	24040002 	addiu	a0,zero,2
1000113c:	0040f809 	jalr	v0
10001140:	00000000 	sll	zero,zero,0x0
10001144:	8fbf0014 	lw	ra,20(sp)
10001148:	27bd0018 	addiu	sp,sp,24
1000114c:	03e00008 	jr	ra
10001150:	00000000 	sll	zero,zero,0x0

10001154 <draw_sync>:
10001154:	3c041021 	lui	a0,0x1021
10001158:	8c828508 	lw	v0,-31480(a0)
1000115c:	27bdffd0 	addiu	sp,sp,-48
10001160:	afbf002c 	sw	ra,44(sp)
10001164:	10400012 	beqz	v0,100011b0 <draw_sync+0x5c>
10001168:	00000000 	sll	zero,zero,0x0
1000116c:	24030001 	addiu	v1,zero,1
10001170:	afa00020 	sw	zero,32(sp)
10001174:	afa0001c 	sw	zero,28(sp)
10001178:	afa30024 	sw	v1,36(sp)
1000117c:	8c42000c 	lw	v0,12(v0)
10001180:	afa00018 	sw	zero,24(sp)
10001184:	afa00014 	sw	zero,20(sp)
10001188:	afa00010 	sw	zero,16(sp)
1000118c:	27a50010 	addiu	a1,sp,16
10001190:	24060018 	addiu	a2,zero,24
10001194:	24040002 	addiu	a0,zero,2
10001198:	0040f809 	jalr	v0
1000119c:	00000000 	sll	zero,zero,0x0
100011a0:	8fbf002c 	lw	ra,44(sp)
100011a4:	27bd0030 	addiu	sp,sp,48
100011a8:	03e00008 	jr	ra
100011ac:	00000000 	sll	zero,zero,0x0
100011b0:	3405ac04 	ori	a1,zero,0xac04
100011b4:	24848508 	addiu	a0,a0,-31480
100011b8:	0c0003d0 	jal	10000f40 <getdev.part.0>
100011bc:	00000000 	sll	zero,zero,0x0
100011c0:	1000ffea 	beqz	zero,1000116c <draw_sync+0x18>
100011c4:	00000000 	sll	zero,zero,0x0

100011c8 <screen_width>:
100011c8:	3c041021 	lui	a0,0x1021
100011cc:	8c828508 	lw	v0,-31480(a0)
100011d0:	27bdffe0 	addiu	sp,sp,-32
100011d4:	afbf001c 	sw	ra,28(sp)
100011d8:	1040000c 	beqz	v0,1000120c <screen_width+0x44>
100011dc:	00000000 	sll	zero,zero,0x0
100011e0:	8c420008 	lw	v0,8(v0)
100011e4:	27a50010 	addiu	a1,sp,16
100011e8:	24060008 	addiu	a2,zero,8
100011ec:	24040001 	addiu	a0,zero,1
100011f0:	0040f809 	jalr	v0
100011f4:	00000000 	sll	zero,zero,0x0
100011f8:	8fbf001c 	lw	ra,28(sp)
100011fc:	8fa20010 	lw	v0,16(sp)
10001200:	27bd0020 	addiu	sp,sp,32
10001204:	03e00008 	jr	ra
10001208:	00000000 	sll	zero,zero,0x0
1000120c:	3405ac04 	ori	a1,zero,0xac04
10001210:	24848508 	addiu	a0,a0,-31480
10001214:	0c0003d0 	jal	10000f40 <getdev.part.0>
10001218:	00000000 	sll	zero,zero,0x0
1000121c:	8c420008 	lw	v0,8(v0)
10001220:	27a50010 	addiu	a1,sp,16
10001224:	24060008 	addiu	a2,zero,8
10001228:	24040001 	addiu	a0,zero,1
1000122c:	0040f809 	jalr	v0
10001230:	00000000 	sll	zero,zero,0x0
10001234:	8fbf001c 	lw	ra,28(sp)
10001238:	8fa20010 	lw	v0,16(sp)
1000123c:	27bd0020 	addiu	sp,sp,32
10001240:	03e00008 	jr	ra
10001244:	00000000 	sll	zero,zero,0x0

10001248 <screen_height>:
10001248:	3c041021 	lui	a0,0x1021
1000124c:	8c828508 	lw	v0,-31480(a0)
10001250:	27bdffe0 	addiu	sp,sp,-32
10001254:	afbf001c 	sw	ra,28(sp)
10001258:	1040000c 	beqz	v0,1000128c <screen_height+0x44>
1000125c:	00000000 	sll	zero,zero,0x0
10001260:	8c420008 	lw	v0,8(v0)
10001264:	27a50010 	addiu	a1,sp,16
10001268:	24060008 	addiu	a2,zero,8
1000126c:	24040001 	addiu	a0,zero,1
10001270:	0040f809 	jalr	v0
10001274:	00000000 	sll	zero,zero,0x0
10001278:	8fbf001c 	lw	ra,28(sp)
1000127c:	8fa20014 	lw	v0,20(sp)
10001280:	27bd0020 	addiu	sp,sp,32
10001284:	03e00008 	jr	ra
10001288:	00000000 	sll	zero,zero,0x0
1000128c:	3405ac04 	ori	a1,zero,0xac04
10001290:	24848508 	addiu	a0,a0,-31480
10001294:	0c0003d0 	jal	10000f40 <getdev.part.0>
10001298:	00000000 	sll	zero,zero,0x0
1000129c:	8c420008 	lw	v0,8(v0)
100012a0:	27a50010 	addiu	a1,sp,16
100012a4:	24060008 	addiu	a2,zero,8
100012a8:	24040001 	addiu	a0,zero,1
100012ac:	0040f809 	jalr	v0
100012b0:	00000000 	sll	zero,zero,0x0
100012b4:	8fbf001c 	lw	ra,28(sp)
100012b8:	8fa20014 	lw	v0,20(sp)
100012bc:	27bd0020 	addiu	sp,sp,32
100012c0:	03e00008 	jr	ra
100012c4:	00000000 	sll	zero,zero,0x0
	...

100012d0 <screen_init>:
100012d0:	27bdffe8 	addiu	sp,sp,-24
100012d4:	afb00010 	sw	s0,16(sp)
100012d8:	3c101033 	lui	s0,0x1033
100012dc:	2604ce68 	addiu	a0,s0,-12696
100012e0:	24060050 	addiu	a2,zero,80
100012e4:	00002825 	or	a1,zero,zero
100012e8:	2610ce68 	addiu	s0,s0,-12696
100012ec:	afbf0014 	sw	ra,20(sp)
100012f0:	0c000df4 	jal	100037d0 <memset>
100012f4:	00000000 	sll	zero,zero,0x0
100012f8:	ae000050 	sw	zero,80(s0)
100012fc:	0c000f08 	jal	10003c20 <fb_clear>
10001300:	00000000 	sll	zero,zero,0x0
10001304:	8fbf0014 	lw	ra,20(sp)
10001308:	8fb00010 	lw	s0,16(sp)
1000130c:	27bd0018 	addiu	sp,sp,24
10001310:	08000ef7 	j	10003bdc <fb_sync>
10001314:	00000000 	sll	zero,zero,0x0

10001318 <screen_add>:
10001318:	3c061033 	lui	a2,0x1033
1000131c:	24c6ce68 	addiu	a2,a2,-12696
10001320:	8cc20050 	lw	v0,80(a2)
10001324:	2447ffff 	addiu	a3,v0,-1
10001328:	04e10002 	bgez	a3,10001334 <screen_add+0x1c>
1000132c:	00000000 	sll	zero,zero,0x0
10001330:	24470013 	addiu	a3,v0,19
10001334:	00022880 	sll	a1,v0,0x2
10001338:	00c51821 	addu	v1,a2,a1
1000133c:	8c630000 	lw	v1,0(v1)
10001340:	24080001 	addiu	t0,zero,1
10001344:	90630001 	lbu	v1,1(v1)
10001348:	00031e00 	sll	v1,v1,0x18
1000134c:	00031e03 	sra	v1,v1,0x18
10001350:	1468001d 	bne	v1,t0,100013c8 <screen_add+0xb0>
10001354:	00000000 	sll	zero,zero,0x0
10001358:	10470021 	beq	v0,a3,100013e0 <screen_add+0xc8>
1000135c:	00000000 	sll	zero,zero,0x0
10001360:	3c0a6666 	lui	t2,0x6666
10001364:	254a6667 	addiu	t2,t2,26215
10001368:	240b0001 	addiu	t3,zero,1
1000136c:	10000003 	beqz	zero,1000137c <screen_add+0x64>
10001370:	00000000 	sll	zero,zero,0x0
10001374:	1047001a 	beq	v0,a3,100013e0 <screen_add+0xc8>
10001378:	00000000 	sll	zero,zero,0x0
1000137c:	24450001 	addiu	a1,v0,1
10001380:	00aa0018 	mult	a1,t2
10001384:	00051fc3 	sra	v1,a1,0x1f
10001388:	00004810 	mfhi	t1
1000138c:	000910c3 	sra	v0,t1,0x3
10001390:	00431023 	subu	v0,v0,v1
10001394:	00021880 	sll	v1,v0,0x2
10001398:	00621021 	addu	v0,v1,v0
1000139c:	00021080 	sll	v0,v0,0x2
100013a0:	00a21023 	subu	v0,a1,v0
100013a4:	00022880 	sll	a1,v0,0x2
100013a8:	00c51821 	addu	v1,a2,a1
100013ac:	8c630000 	lw	v1,0(v1)
100013b0:	acc20050 	sw	v0,80(a2)
100013b4:	90630001 	lbu	v1,1(v1)
100013b8:	00031e00 	sll	v1,v1,0x18
100013bc:	00031e03 	sra	v1,v1,0x18
100013c0:	106bffec 	beq	v1,t3,10001374 <screen_add+0x5c>
100013c4:	00000000 	sll	zero,zero,0x0
100013c8:	10e20005 	beq	a3,v0,100013e0 <screen_add+0xc8>
100013cc:	00000000 	sll	zero,zero,0x0
100013d0:	00c53021 	addu	a2,a2,a1
100013d4:	acc40000 	sw	a0,0(a2)
100013d8:	03e00008 	jr	ra
100013dc:	00000000 	sll	zero,zero,0x0
100013e0:	3c041000 	lui	a0,0x1000
100013e4:	24847444 	addiu	a0,a0,29764
100013e8:	08000cb5 	j	100032d4 <printf>
100013ec:	00000000 	sll	zero,zero,0x0

100013f0 <screen_clear>:
100013f0:	27bdffd8 	addiu	sp,sp,-40
100013f4:	afb30020 	sw	s3,32(sp)
100013f8:	3c131033 	lui	s3,0x1033
100013fc:	2673ce68 	addiu	s3,s3,-12696
10001400:	afb2001c 	sw	s2,28(sp)
10001404:	afb10018 	sw	s1,24(sp)
10001408:	afb00014 	sw	s0,20(sp)
1000140c:	afbf0024 	sw	ra,36(sp)
10001410:	02608025 	or	s0,s3,zero
10001414:	26720050 	addiu	s2,s3,80
10001418:	24110001 	addiu	s1,zero,1
1000141c:	10000003 	beqz	zero,1000142c <screen_clear+0x3c>
10001420:	00000000 	sll	zero,zero,0x0
10001424:	1212000c 	beq	s0,s2,10001458 <screen_clear+0x68>
10001428:	00000000 	sll	zero,zero,0x0
1000142c:	8e040000 	lw	a0,0(s0)
10001430:	26100004 	addiu	s0,s0,4
10001434:	90820001 	lbu	v0,1(a0)
10001438:	00021600 	sll	v0,v0,0x18
1000143c:	00021603 	sra	v0,v0,0x18
10001440:	1451fff8 	bne	v0,s1,10001424 <screen_clear+0x34>
10001444:	00000000 	sll	zero,zero,0x0
10001448:	0c0007cf 	jal	10001f3c <cp_virtual_delete>
1000144c:	00000000 	sll	zero,zero,0x0
10001450:	1612fff6 	bne	s0,s2,1000142c <screen_clear+0x3c>
10001454:	00000000 	sll	zero,zero,0x0
10001458:	8fbf0024 	lw	ra,36(sp)
1000145c:	8fb2001c 	lw	s2,28(sp)
10001460:	8fb10018 	lw	s1,24(sp)
10001464:	8fb00014 	lw	s0,20(sp)
10001468:	ae600050 	sw	zero,80(s3)
1000146c:	8fb30020 	lw	s3,32(sp)
10001470:	27bd0028 	addiu	sp,sp,40
10001474:	03e00008 	jr	ra
10001478:	00000000 	sll	zero,zero,0x0

1000147c <screen_draw>:
1000147c:	27bdffe0 	addiu	sp,sp,-32
10001480:	afb00010 	sw	s0,16(sp)
10001484:	3c101033 	lui	s0,0x1033
10001488:	2610ce68 	addiu	s0,s0,-12696
1000148c:	afb20018 	sw	s2,24(sp)
10001490:	afb10014 	sw	s1,20(sp)
10001494:	afbf001c 	sw	ra,28(sp)
10001498:	26120050 	addiu	s2,s0,80
1000149c:	0c000f08 	jal	10003c20 <fb_clear>
100014a0:	00000000 	sll	zero,zero,0x0
100014a4:	24110001 	addiu	s1,zero,1
100014a8:	10000003 	beqz	zero,100014b8 <screen_draw+0x3c>
100014ac:	00000000 	sll	zero,zero,0x0
100014b0:	1212000c 	beq	s0,s2,100014e4 <screen_draw+0x68>
100014b4:	00000000 	sll	zero,zero,0x0
100014b8:	8e040000 	lw	a0,0(s0)
100014bc:	26100004 	addiu	s0,s0,4
100014c0:	90820001 	lbu	v0,1(a0)
100014c4:	00021600 	sll	v0,v0,0x18
100014c8:	00021603 	sra	v0,v0,0x18
100014cc:	1451fff8 	bne	v0,s1,100014b0 <screen_draw+0x34>
100014d0:	00000000 	sll	zero,zero,0x0
100014d4:	0c000794 	jal	10001e50 <cp_virtual_draw>
100014d8:	00000000 	sll	zero,zero,0x0
100014dc:	1612fff6 	bne	s0,s2,100014b8 <screen_draw+0x3c>
100014e0:	00000000 	sll	zero,zero,0x0
100014e4:	8fbf001c 	lw	ra,28(sp)
100014e8:	8fb20018 	lw	s2,24(sp)
100014ec:	8fb10014 	lw	s1,20(sp)
100014f0:	8fb00010 	lw	s0,16(sp)
100014f4:	27bd0020 	addiu	sp,sp,32
100014f8:	08000ef7 	j	10003bdc <fb_sync>
100014fc:	00000000 	sll	zero,zero,0x0

10001500 <screen_rm>:
10001500:	1080000b 	beqz	a0,10001530 <screen_rm+0x30>
10001504:	00000000 	sll	zero,zero,0x0
10001508:	90820001 	lbu	v0,1(a0)
1000150c:	24030001 	addiu	v1,zero,1
10001510:	00021600 	sll	v0,v0,0x18
10001514:	00021603 	sra	v0,v0,0x18
10001518:	10430007 	beq	v0,v1,10001538 <screen_rm+0x38>
1000151c:	00000000 	sll	zero,zero,0x0
10001520:	3c041000 	lui	a0,0x1000
10001524:	24847468 	addiu	a0,a0,29800
10001528:	08000cb5 	j	100032d4 <printf>
1000152c:	00000000 	sll	zero,zero,0x0
10001530:	03e00008 	jr	ra
10001534:	00000000 	sll	zero,zero,0x0
10001538:	080007cf 	j	10001f3c <cp_virtual_delete>
1000153c:	00000000 	sll	zero,zero,0x0

10001540 <color_to_int>:
10001540:	afa40000 	sw	a0,0(sp)
10001544:	8ba20003 	lwl	v0,3(sp)
10001548:	9ba20000 	lwr	v0,0(sp)
1000154c:	03e00008 	jr	ra
10001550:	00000000 	sll	zero,zero,0x0

10001554 <int_to_color>:
10001554:	a8850003 	swl	a1,3(a0)
10001558:	00801025 	or	v0,a0,zero
1000155c:	afa50004 	sw	a1,4(sp)
10001560:	b8850000 	swr	a1,0(a0)
10001564:	03e00008 	jr	ra
10001568:	00000000 	sll	zero,zero,0x0
1000156c:	00000000 	sll	zero,zero,0x0

10001570 <build_player2>:
10001570:	3c0a1033 	lui	t2,0x1033
10001574:	27bdffb8 	addiu	sp,sp,-72
10001578:	254acebc 	addiu	t2,t2,-12612
1000157c:	3c0b6666 	lui	t3,0x6666
10001580:	8d430230 	lw	v1,560(t2)
10001584:	afa70054 	sw	a3,84(sp)
10001588:	afbf0044 	sw	ra,68(sp)
1000158c:	afb00040 	sw	s0,64(sp)
10001590:	afa40048 	sw	a0,72(sp)
10001594:	afa5004c 	sw	a1,76(sp)
10001598:	afa60050 	sw	a2,80(sp)
1000159c:	24070014 	addiu	a3,zero,20
100015a0:	256b6667 	addiu	t3,t3,26215
100015a4:	10000003 	beqz	zero,100015b4 <build_player2+0x44>
100015a8:	00000000 	sll	zero,zero,0x0
100015ac:	10e00041 	beqz	a3,100016b4 <build_player2+0x144>
100015b0:	00000000 	sll	zero,zero,0x0
100015b4:	24660001 	addiu	a2,v1,1
100015b8:	00cb0018 	mult	a2,t3
100015bc:	000320c0 	sll	a0,v1,0x3
100015c0:	00004810 	mfhi	t1
100015c4:	00831823 	subu	v1,a0,v1
100015c8:	00032080 	sll	a0,v1,0x2
100015cc:	000910c3 	sra	v0,t1,0x3
100015d0:	00062fc3 	sra	a1,a2,0x1f
100015d4:	00451823 	subu	v1,v0,a1
100015d8:	01441021 	addu	v0,t2,a0
100015dc:	90450001 	lbu	a1,1(v0)
100015e0:	00032080 	sll	a0,v1,0x2
100015e4:	00831821 	addu	v1,a0,v1
100015e8:	00052600 	sll	a0,a1,0x18
100015ec:	00031880 	sll	v1,v1,0x2
100015f0:	00042603 	sra	a0,a0,0x18
100015f4:	24e7ffff 	addiu	a3,a3,-1
100015f8:	00c31823 	subu	v1,a2,v1
100015fc:	1480ffeb 	bnez	a0,100015ac <build_player2+0x3c>
10001600:	00000000 	sll	zero,zero,0x0
10001604:	8fae0048 	lw	t6,72(sp)
10001608:	8fad004c 	lw	t5,76(sp)
1000160c:	8fac0050 	lw	t4,80(sp)
10001610:	8fab0054 	lw	t3,84(sp)
10001614:	8fa90058 	lw	t1,88(sp)
10001618:	00408025 	or	s0,v0,zero
1000161c:	24040070 	addiu	a0,zero,112
10001620:	24020001 	addiu	v0,zero,1
10001624:	a2020001 	sb	v0,1(s0)
10001628:	a2040000 	sb	a0,0(s0)
1000162c:	a2020001 	sb	v0,1(s0)
10001630:	ae0e0004 	sw	t6,4(s0)
10001634:	ae0d0008 	sw	t5,8(s0)
10001638:	ae0c000c 	sw	t4,12(s0)
1000163c:	ae0b0010 	sw	t3,16(s0)
10001640:	ae090014 	sw	t1,20(s0)
10001644:	8e080004 	lw	t0,4(s0)
10001648:	a3a20028 	sb	v0,40(sp)
1000164c:	8e020008 	lw	v0,8(s0)
10001650:	8fa40028 	lw	a0,40(sp)
10001654:	8e070010 	lw	a3,16(s0)
10001658:	afa2001c 	sw	v0,28(sp)
1000165c:	00402825 	or	a1,v0,zero
10001660:	24020002 	addiu	v0,zero,2
10001664:	afa40010 	sw	a0,16(sp)
10001668:	afae002c 	sw	t6,44(sp)
1000166c:	afad0030 	sw	t5,48(sp)
10001670:	afac0034 	sw	t4,52(sp)
10001674:	afab0038 	sw	t3,56(sp)
10001678:	afa9003c 	sw	t1,60(sp)
1000167c:	afa80018 	sw	t0,24(sp)
10001680:	afa20020 	sw	v0,32(sp)
10001684:	01002025 	or	a0,t0,zero
10001688:	24060002 	addiu	a2,zero,2
1000168c:	ad430230 	sw	v1,560(t2)
10001690:	0c000138 	jal	100004e0 <build_hp>
10001694:	00000000 	sll	zero,zero,0x0
10001698:	ae020018 	sw	v0,24(s0)
1000169c:	8fbf0044 	lw	ra,68(sp)
100016a0:	02001025 	or	v0,s0,zero
100016a4:	8fb00040 	lw	s0,64(sp)
100016a8:	27bd0048 	addiu	sp,sp,72
100016ac:	03e00008 	jr	ra
100016b0:	00000000 	sll	zero,zero,0x0
100016b4:	3c041000 	lui	a0,0x1000
100016b8:	24847490 	addiu	a0,a0,29840
100016bc:	ad430230 	sw	v1,560(t2)
100016c0:	0c000cb5 	jal	100032d4 <printf>
100016c4:	00000000 	sll	zero,zero,0x0
100016c8:	8fbf0044 	lw	ra,68(sp)
100016cc:	00008025 	or	s0,zero,zero
100016d0:	02001025 	or	v0,s0,zero
100016d4:	8fb00040 	lw	s0,64(sp)
100016d8:	27bd0048 	addiu	sp,sp,72
100016dc:	03e00008 	jr	ra
100016e0:	00000000 	sll	zero,zero,0x0

100016e4 <player2_delete>:
100016e4:	27bdffe8 	addiu	sp,sp,-24
100016e8:	afb00010 	sw	s0,16(sp)
100016ec:	afbf0014 	sw	ra,20(sp)
100016f0:	00808025 	or	s0,a0,zero
100016f4:	8c840018 	lw	a0,24(a0)
100016f8:	0c000184 	jal	10000610 <hp_delete>
100016fc:	00000000 	sll	zero,zero,0x0
10001700:	a2000001 	sb	zero,1(s0)
10001704:	8fbf0014 	lw	ra,20(sp)
10001708:	8fb00010 	lw	s0,16(sp)
1000170c:	27bd0018 	addiu	sp,sp,24
10001710:	03e00008 	jr	ra
10001714:	00000000 	sll	zero,zero,0x0

10001718 <player2_draw>:
10001718:	27bdffa0 	addiu	sp,sp,-96
1000171c:	afb60050 	sw	s6,80(sp)
10001720:	afb40048 	sw	s4,72(sp)
10001724:	afb20040 	sw	s2,64(sp)
10001728:	afb00038 	sw	s0,56(sp)
1000172c:	afbf005c 	sw	ra,92(sp)
10001730:	afbe0058 	sw	s8,88(sp)
10001734:	afb70054 	sw	s7,84(sp)
10001738:	afb5004c 	sw	s5,76(sp)
1000173c:	afb30044 	sw	s3,68(sp)
10001740:	afb1003c 	sw	s1,60(sp)
10001744:	00808025 	or	s0,a0,zero
10001748:	8c840018 	lw	a0,24(a0)
1000174c:	0c000187 	jal	1000061c <hp_draw>
10001750:	00000000 	sll	zero,zero,0x0
10001754:	3c02100e 	lui	v0,0x100e
10001758:	8c526fa4 	lw	s2,28580(v0)
1000175c:	8e020004 	lw	v0,4(s0)
10001760:	8e560016 	lw	s6,22(s2)
10001764:	afa2002c 	sw	v0,44(sp)
10001768:	8e020008 	lw	v0,8(s0)
1000176c:	8e540012 	lw	s4,18(s2)
10001770:	afa20030 	sw	v0,48(sp)
10001774:	1ac00053 	blez	s6,100018c4 <player2_draw+0x1ac>
10001778:	00000000 	sll	zero,zero,0x0
1000177c:	3c1e1021 	lui	s8,0x1021
10001780:	0014a840 	sll	s5,s4,0x1
10001784:	27c5a13c 	addiu	a1,s8,-24260
10001788:	00141080 	sll	v0,s4,0x2
1000178c:	afa50034 	sw	a1,52(sp)
10001790:	02b4a821 	addu	s5,s5,s4
10001794:	26520036 	addiu	s2,s2,54
10001798:	afa20028 	sw	v0,40(sp)
1000179c:	00009825 	or	s3,zero,zero
100017a0:	24100001 	addiu	s0,zero,1
100017a4:	8fa20028 	lw	v0,40(sp)
100017a8:	00a28821 	addu	s1,a1,v0
100017ac:	1a800027 	blez	s4,1000184c <player2_draw+0x134>
100017b0:	00000000 	sll	zero,zero,0x0
100017b4:	00a0b825 	or	s7,a1,zero
100017b8:	0240f025 	or	s8,s2,zero
100017bc:	1000000a 	beqz	zero,100017e8 <player2_draw+0xd0>
100017c0:	00000000 	sll	zero,zero,0x0
100017c4:	a3a20013 	sb	v0,19(sp)
100017c8:	8fa40010 	lw	a0,16(sp)
100017cc:	26f70004 	addiu	s7,s7,4
100017d0:	0c000550 	jal	10001540 <color_to_int>
100017d4:	00000000 	sll	zero,zero,0x0
100017d8:	aee2fffc 	sw	v0,-4(s7)
100017dc:	27de0003 	addiu	s8,s8,3
100017e0:	12f1001a 	beq	s7,s1,1000184c <player2_draw+0x134>
100017e4:	00000000 	sll	zero,zero,0x0
100017e8:	93c40000 	lbu	a0,0(s8)
100017ec:	00001025 	or	v0,zero,zero
100017f0:	a3a40010 	sb	a0,16(sp)
100017f4:	93c40001 	lbu	a0,1(s8)
100017f8:	a3a40011 	sb	a0,17(sp)
100017fc:	93c40002 	lbu	a0,2(s8)
10001800:	a3a40012 	sb	a0,18(sp)
10001804:	93a40010 	lbu	a0,16(sp)
10001808:	1604ffee 	bne	s0,a0,100017c4 <player2_draw+0xac>
1000180c:	00000000 	sll	zero,zero,0x0
10001810:	93a40011 	lbu	a0,17(sp)
10001814:	1604ffeb 	bne	s0,a0,100017c4 <player2_draw+0xac>
10001818:	00000000 	sll	zero,zero,0x0
1000181c:	93a20012 	lbu	v0,18(sp)
10001820:	26f70004 	addiu	s7,s7,4
10001824:	38420001 	xori	v0,v0,0x1
10001828:	2c420001 	sltiu	v0,v0,1
1000182c:	a3a20013 	sb	v0,19(sp)
10001830:	8fa40010 	lw	a0,16(sp)
10001834:	27de0003 	addiu	s8,s8,3
10001838:	0c000550 	jal	10001540 <color_to_int>
1000183c:	00000000 	sll	zero,zero,0x0
10001840:	aee2fffc 	sw	v0,-4(s7)
10001844:	16f1ffe8 	bne	s7,s1,100017e8 <player2_draw+0xd0>
10001848:	00000000 	sll	zero,zero,0x0
1000184c:	26730001 	addiu	s3,s3,1
10001850:	02559021 	addu	s2,s2,s5
10001854:	02202825 	or	a1,s1,zero
10001858:	16d3ffd2 	bne	s6,s3,100017a4 <player2_draw+0x8c>
1000185c:	00000000 	sll	zero,zero,0x0
10001860:	8fa2002c 	lw	v0,44(sp)
10001864:	27a40010 	addiu	a0,sp,16
10001868:	afa20010 	sw	v0,16(sp)
1000186c:	8fa20030 	lw	v0,48(sp)
10001870:	afb4001c 	sw	s4,28(sp)
10001874:	afa20014 	sw	v0,20(sp)
10001878:	8fa20034 	lw	v0,52(sp)
1000187c:	afb60020 	sw	s6,32(sp)
10001880:	afa20018 	sw	v0,24(sp)
10001884:	afa00024 	sw	zero,36(sp)
10001888:	0c000e8c 	jal	10003a30 <fb_add>
1000188c:	00000000 	sll	zero,zero,0x0
10001890:	8fbf005c 	lw	ra,92(sp)
10001894:	8fbe0058 	lw	s8,88(sp)
10001898:	8fb70054 	lw	s7,84(sp)
1000189c:	8fb60050 	lw	s6,80(sp)
100018a0:	8fb5004c 	lw	s5,76(sp)
100018a4:	8fb40048 	lw	s4,72(sp)
100018a8:	8fb30044 	lw	s3,68(sp)
100018ac:	8fb20040 	lw	s2,64(sp)
100018b0:	8fb1003c 	lw	s1,60(sp)
100018b4:	8fb00038 	lw	s0,56(sp)
100018b8:	27bd0060 	addiu	sp,sp,96
100018bc:	03e00008 	jr	ra
100018c0:	00000000 	sll	zero,zero,0x0
100018c4:	3c1e1021 	lui	s8,0x1021
100018c8:	27c2a13c 	addiu	v0,s8,-24260
100018cc:	afa20034 	sw	v0,52(sp)
100018d0:	1000ffe3 	beqz	zero,10001860 <player2_draw+0x148>
100018d4:	00000000 	sll	zero,zero,0x0

100018d8 <player2_locate>:
100018d8:	8c820004 	lw	v0,4(a0)
100018dc:	aca20000 	sw	v0,0(a1)
100018e0:	8c830008 	lw	v1,8(a0)
100018e4:	3c02100e 	lui	v0,0x100e
100018e8:	8c426fa4 	lw	v0,28580(v0)
100018ec:	aca30004 	sw	v1,4(a1)
100018f0:	8c430012 	lw	v1,18(v0)
100018f4:	aca30008 	sw	v1,8(a1)
100018f8:	8c420016 	lw	v0,22(v0)
100018fc:	aca2000c 	sw	v0,12(a1)
10001900:	03e00008 	jr	ra
10001904:	00000000 	sll	zero,zero,0x0

10001908 <player2_move>:
10001908:	8c830004 	lw	v1,4(a0)
1000190c:	00801025 	or	v0,a0,zero
10001910:	00651821 	addu	v1,v1,a1
10001914:	8c840018 	lw	a0,24(a0)
10001918:	ac430004 	sw	v1,4(v0)
1000191c:	8c430008 	lw	v1,8(v0)
10001920:	00661821 	addu	v1,v1,a2
10001924:	ac430008 	sw	v1,8(v0)
10001928:	080001ec 	j	100007b0 <hp_move>
1000192c:	00000000 	sll	zero,zero,0x0

10001930 <player2_answer>:
10001930:	24030031 	addiu	v1,zero,49
10001934:	00801025 	or	v0,a0,zero
10001938:	10a3002b 	beq	a1,v1,100019e8 <player2_answer+0xb8>
1000193c:	00000000 	sll	zero,zero,0x0
10001940:	28a30032 	slti	v1,a1,50
10001944:	1460001b 	bnez	v1,100019b4 <player2_answer+0x84>
10001948:	00000000 	sll	zero,zero,0x0
1000194c:	24030032 	addiu	v1,zero,50
10001950:	10a3000e 	beq	a1,v1,1000198c <player2_answer+0x5c>
10001954:	00000000 	sll	zero,zero,0x0
10001958:	24030033 	addiu	v1,zero,51
1000195c:	14a3002c 	bne	a1,v1,10001a10 <player2_answer+0xe0>
10001960:	00000000 	sll	zero,zero,0x0
10001964:	8c830004 	lw	v1,4(a0)
10001968:	8c840018 	lw	a0,24(a0)
1000196c:	2463000c 	addiu	v1,v1,12
10001970:	ac430004 	sw	v1,4(v0)
10001974:	8c430008 	lw	v1,8(v0)
10001978:	00003025 	or	a2,zero,zero
1000197c:	ac430008 	sw	v1,8(v0)
10001980:	2405000c 	addiu	a1,zero,12
10001984:	080001ec 	j	100007b0 <hp_move>
10001988:	00000000 	sll	zero,zero,0x0
1000198c:	8c830004 	lw	v1,4(a0)
10001990:	8c840018 	lw	a0,24(a0)
10001994:	ac430004 	sw	v1,4(v0)
10001998:	8c430008 	lw	v1,8(v0)
1000199c:	2406000c 	addiu	a2,zero,12
100019a0:	2463000c 	addiu	v1,v1,12
100019a4:	ac430008 	sw	v1,8(v0)
100019a8:	00002825 	or	a1,zero,zero
100019ac:	080001ec 	j	100007b0 <hp_move>
100019b0:	00000000 	sll	zero,zero,0x0
100019b4:	24030024 	addiu	v1,zero,36
100019b8:	14a30017 	bne	a1,v1,10001a18 <player2_answer+0xe8>
100019bc:	00000000 	sll	zero,zero,0x0
100019c0:	8c830004 	lw	v1,4(a0)
100019c4:	8c840018 	lw	a0,24(a0)
100019c8:	ac430004 	sw	v1,4(v0)
100019cc:	8c430008 	lw	v1,8(v0)
100019d0:	2406fff4 	addiu	a2,zero,-12
100019d4:	2463fff4 	addiu	v1,v1,-12
100019d8:	ac430008 	sw	v1,8(v0)
100019dc:	00002825 	or	a1,zero,zero
100019e0:	080001ec 	j	100007b0 <hp_move>
100019e4:	00000000 	sll	zero,zero,0x0
100019e8:	8c830004 	lw	v1,4(a0)
100019ec:	8c840018 	lw	a0,24(a0)
100019f0:	2463fff4 	addiu	v1,v1,-12
100019f4:	ac430004 	sw	v1,4(v0)
100019f8:	8c430008 	lw	v1,8(v0)
100019fc:	00003025 	or	a2,zero,zero
10001a00:	ac430008 	sw	v1,8(v0)
10001a04:	2405fff4 	addiu	a1,zero,-12
10001a08:	080001ec 	j	100007b0 <hp_move>
10001a0c:	00000000 	sll	zero,zero,0x0
10001a10:	03e00008 	jr	ra
10001a14:	00000000 	sll	zero,zero,0x0
10001a18:	03e00008 	jr	ra
10001a1c:	00000000 	sll	zero,zero,0x0

10001a20 <player2_hurt>:
10001a20:	8c840018 	lw	a0,24(a0)
10001a24:	080001f4 	j	100007d0 <hp_decrease>
10001a28:	00000000 	sll	zero,zero,0x0

10001a2c <player2_isCrash>:
10001a2c:	8c820018 	lw	v0,24(a0)
10001a30:	8c420018 	lw	v0,24(v0)
10001a34:	28420001 	slti	v0,v0,1
10001a38:	03e00008 	jr	ra
10001a3c:	00000000 	sll	zero,zero,0x0

10001a40 <player2_get_attack>:
10001a40:	8c820014 	lw	v0,20(a0)
10001a44:	03e00008 	jr	ra
10001a48:	00000000 	sll	zero,zero,0x0

10001a4c <player2_set_attack>:
10001a4c:	ac850014 	sw	a1,20(a0)
10001a50:	03e00008 	jr	ra
10001a54:	00000000 	sll	zero,zero,0x0

10001a58 <player2_get_hp>:
10001a58:	8c820018 	lw	v0,24(a0)
10001a5c:	8c420018 	lw	v0,24(v0)
10001a60:	03e00008 	jr	ra
10001a64:	00000000 	sll	zero,zero,0x0
	...

10001a70 <kb_virtual_answer>:
10001a70:	90860001 	lbu	a2,1(a0)
10001a74:	27bdfff8 	addiu	sp,sp,-8
10001a78:	a3a60001 	sb	a2,1(sp)
10001a7c:	93a20001 	lbu	v0,1(sp)
10001a80:	90830000 	lbu	v1,0(a0)
10001a84:	00021600 	sll	v0,v0,0x18
10001a88:	00021603 	sra	v0,v0,0x18
10001a8c:	a3a30000 	sb	v1,0(sp)
10001a90:	1040000d 	beqz	v0,10001ac8 <kb_virtual_answer+0x58>
10001a94:	00000000 	sll	zero,zero,0x0
10001a98:	93a20000 	lbu	v0,0(sp)
10001a9c:	24030050 	addiu	v1,zero,80
10001aa0:	00021600 	sll	v0,v0,0x18
10001aa4:	00021603 	sra	v0,v0,0x18
10001aa8:	1043000a 	beq	v0,v1,10001ad4 <kb_virtual_answer+0x64>
10001aac:	00000000 	sll	zero,zero,0x0
10001ab0:	24030070 	addiu	v1,zero,112
10001ab4:	14430004 	bne	v0,v1,10001ac8 <kb_virtual_answer+0x58>
10001ab8:	00000000 	sll	zero,zero,0x0
10001abc:	27bd0008 	addiu	sp,sp,8
10001ac0:	0800064c 	j	10001930 <player2_answer>
10001ac4:	00000000 	sll	zero,zero,0x0
10001ac8:	27bd0008 	addiu	sp,sp,8
10001acc:	03e00008 	jr	ra
10001ad0:	00000000 	sll	zero,zero,0x0
10001ad4:	27bd0008 	addiu	sp,sp,8
10001ad8:	08001258 	j	10004960 <player1_answer>
10001adc:	00000000 	sll	zero,zero,0x0

10001ae0 <battle_virtual_hurt>:
10001ae0:	90820001 	lbu	v0,1(a0)
10001ae4:	27bdfff8 	addiu	sp,sp,-8
10001ae8:	a3a20001 	sb	v0,1(sp)
10001aec:	93a20001 	lbu	v0,1(sp)
10001af0:	90830000 	lbu	v1,0(a0)
10001af4:	00021600 	sll	v0,v0,0x18
10001af8:	00021603 	sra	v0,v0,0x18
10001afc:	a3a30000 	sb	v1,0(sp)
10001b00:	1040000e 	beqz	v0,10001b3c <battle_virtual_hurt+0x5c>
10001b04:	00000000 	sll	zero,zero,0x0
10001b08:	93a20000 	lbu	v0,0(sp)
10001b0c:	2442ffb7 	addiu	v0,v0,-73
10001b10:	304200ff 	andi	v0,v0,0xff
10001b14:	2c430028 	sltiu	v1,v0,40
10001b18:	10600008 	beqz	v1,10001b3c <battle_virtual_hurt+0x5c>
10001b1c:	00000000 	sll	zero,zero,0x0
10001b20:	3c03100e 	lui	v1,0x100e
10001b24:	00021080 	sll	v0,v0,0x2
10001b28:	24636400 	addiu	v1,v1,25600
10001b2c:	00621021 	addu	v0,v1,v0
10001b30:	8c420000 	lw	v0,0(v0)
10001b34:	00400008 	jr	v0
10001b38:	00000000 	sll	zero,zero,0x0
10001b3c:	27bd0008 	addiu	sp,sp,8
10001b40:	03e00008 	jr	ra
10001b44:	00000000 	sll	zero,zero,0x0
10001b48:	27bd0008 	addiu	sp,sp,8
10001b4c:	08000688 	j	10001a20 <player2_hurt>
10001b50:	00000000 	sll	zero,zero,0x0
10001b54:	27bd0008 	addiu	sp,sp,8
10001b58:	080002f6 	j	10000bd8 <planeX_hurt>
10001b5c:	00000000 	sll	zero,zero,0x0
10001b60:	27bd0008 	addiu	sp,sp,8
10001b64:	0800139e 	j	10004e78 <planeU_hurt>
10001b68:	00000000 	sll	zero,zero,0x0
10001b6c:	27bd0008 	addiu	sp,sp,8
10001b70:	0800100a 	j	10004028 <planeT_hurt>
10001b74:	00000000 	sll	zero,zero,0x0
10001b78:	27bd0008 	addiu	sp,sp,8
10001b7c:	08001294 	j	10004a50 <player1_hurt>
10001b80:	00000000 	sll	zero,zero,0x0
10001b84:	27bd0008 	addiu	sp,sp,8
10001b88:	080014a6 	j	10005298 <planeI_hurt>
10001b8c:	00000000 	sll	zero,zero,0x0

10001b90 <battle_virtual_isCrash>:
10001b90:	90820001 	lbu	v0,1(a0)
10001b94:	27bdfff8 	addiu	sp,sp,-8
10001b98:	a3a20001 	sb	v0,1(sp)
10001b9c:	93a20001 	lbu	v0,1(sp)
10001ba0:	90830000 	lbu	v1,0(a0)
10001ba4:	00021600 	sll	v0,v0,0x18
10001ba8:	00021603 	sra	v0,v0,0x18
10001bac:	a3a30000 	sb	v1,0(sp)
10001bb0:	1040000e 	beqz	v0,10001bec <battle_virtual_isCrash+0x5c>
10001bb4:	00000000 	sll	zero,zero,0x0
10001bb8:	93a20000 	lbu	v0,0(sp)
10001bbc:	2442ffb7 	addiu	v0,v0,-73
10001bc0:	304200ff 	andi	v0,v0,0xff
10001bc4:	2c430028 	sltiu	v1,v0,40
10001bc8:	10600008 	beqz	v1,10001bec <battle_virtual_isCrash+0x5c>
10001bcc:	00000000 	sll	zero,zero,0x0
10001bd0:	3c03100e 	lui	v1,0x100e
10001bd4:	00021080 	sll	v0,v0,0x2
10001bd8:	246364a0 	addiu	v1,v1,25760
10001bdc:	00621021 	addu	v0,v1,v0
10001be0:	8c420000 	lw	v0,0(v0)
10001be4:	00400008 	jr	v0
10001be8:	00000000 	sll	zero,zero,0x0
10001bec:	00001025 	or	v0,zero,zero
10001bf0:	27bd0008 	addiu	sp,sp,8
10001bf4:	03e00008 	jr	ra
10001bf8:	00000000 	sll	zero,zero,0x0
10001bfc:	27bd0008 	addiu	sp,sp,8
10001c00:	08001297 	j	10004a5c <player1_isCrash>
10001c04:	00000000 	sll	zero,zero,0x0
10001c08:	27bd0008 	addiu	sp,sp,8
10001c0c:	0800100d 	j	10004034 <planeT_isCrash>
10001c10:	00000000 	sll	zero,zero,0x0
10001c14:	27bd0008 	addiu	sp,sp,8
10001c18:	080013a1 	j	10004e84 <planeU_isCrash>
10001c1c:	00000000 	sll	zero,zero,0x0
10001c20:	27bd0008 	addiu	sp,sp,8
10001c24:	080002f9 	j	10000be4 <planeX_isCrash>
10001c28:	00000000 	sll	zero,zero,0x0
10001c2c:	27bd0008 	addiu	sp,sp,8
10001c30:	080014a9 	j	100052a4 <planeI_isCrash>
10001c34:	00000000 	sll	zero,zero,0x0

10001c38 <battle_virtual_get_attack>:
10001c38:	90820001 	lbu	v0,1(a0)
10001c3c:	27bdfff8 	addiu	sp,sp,-8
10001c40:	a3a20001 	sb	v0,1(sp)
10001c44:	93a20001 	lbu	v0,1(sp)
10001c48:	90830000 	lbu	v1,0(a0)
10001c4c:	00021600 	sll	v0,v0,0x18
10001c50:	00021603 	sra	v0,v0,0x18
10001c54:	a3a30000 	sb	v1,0(sp)
10001c58:	10400020 	beqz	v0,10001cdc <battle_virtual_get_attack+0xa4>
10001c5c:	00000000 	sll	zero,zero,0x0
10001c60:	93a20000 	lbu	v0,0(sp)
10001c64:	2442ffbe 	addiu	v0,v0,-66
10001c68:	304200ff 	andi	v0,v0,0xff
10001c6c:	2c43002f 	sltiu	v1,v0,47
10001c70:	1060001a 	beqz	v1,10001cdc <battle_virtual_get_attack+0xa4>
10001c74:	00000000 	sll	zero,zero,0x0
10001c78:	3c03100e 	lui	v1,0x100e
10001c7c:	00021080 	sll	v0,v0,0x2
10001c80:	24636540 	addiu	v1,v1,25920
10001c84:	00621021 	addu	v0,v1,v0
10001c88:	8c420000 	lw	v0,0(v0)
10001c8c:	00400008 	jr	v0
10001c90:	00000000 	sll	zero,zero,0x0
10001c94:	27bd0008 	addiu	sp,sp,8
10001c98:	0800129c 	j	10004a70 <player1_get_attack>
10001c9c:	00000000 	sll	zero,zero,0x0
10001ca0:	27bd0008 	addiu	sp,sp,8
10001ca4:	080014ae 	j	100052b8 <planeI_get_attack>
10001ca8:	00000000 	sll	zero,zero,0x0
10001cac:	27bd0008 	addiu	sp,sp,8
10001cb0:	08001012 	j	10004048 <planeT_get_attack>
10001cb4:	00000000 	sll	zero,zero,0x0
10001cb8:	27bd0008 	addiu	sp,sp,8
10001cbc:	080013a6 	j	10004e98 <planeU_get_attack>
10001cc0:	00000000 	sll	zero,zero,0x0
10001cc4:	27bd0008 	addiu	sp,sp,8
10001cc8:	080002fe 	j	10000bf8 <planeX_get_attack>
10001ccc:	00000000 	sll	zero,zero,0x0
10001cd0:	27bd0008 	addiu	sp,sp,8
10001cd4:	08000ddb 	j	1000376c <bullet_get_attack>
10001cd8:	00000000 	sll	zero,zero,0x0
10001cdc:	2402ffff 	addiu	v0,zero,-1
10001ce0:	27bd0008 	addiu	sp,sp,8
10001ce4:	03e00008 	jr	ra
10001ce8:	00000000 	sll	zero,zero,0x0

10001cec <battle_virtual_set_attack>:
10001cec:	90820001 	lbu	v0,1(a0)
10001cf0:	27bdfff8 	addiu	sp,sp,-8
10001cf4:	a3a20001 	sb	v0,1(sp)
10001cf8:	93a20001 	lbu	v0,1(sp)
10001cfc:	90830000 	lbu	v1,0(a0)
10001d00:	00021600 	sll	v0,v0,0x18
10001d04:	00021603 	sra	v0,v0,0x18
10001d08:	a3a30000 	sb	v1,0(sp)
10001d0c:	1040000e 	beqz	v0,10001d48 <battle_virtual_set_attack+0x5c>
10001d10:	00000000 	sll	zero,zero,0x0
10001d14:	93a20000 	lbu	v0,0(sp)
10001d18:	2442ffbe 	addiu	v0,v0,-66
10001d1c:	304200ff 	andi	v0,v0,0xff
10001d20:	2c43002f 	sltiu	v1,v0,47
10001d24:	10600008 	beqz	v1,10001d48 <battle_virtual_set_attack+0x5c>
10001d28:	00000000 	sll	zero,zero,0x0
10001d2c:	3c03100e 	lui	v1,0x100e
10001d30:	00021080 	sll	v0,v0,0x2
10001d34:	246365fc 	addiu	v1,v1,26108
10001d38:	00621021 	addu	v0,v1,v0
10001d3c:	8c420000 	lw	v0,0(v0)
10001d40:	00400008 	jr	v0
10001d44:	00000000 	sll	zero,zero,0x0
10001d48:	27bd0008 	addiu	sp,sp,8
10001d4c:	03e00008 	jr	ra
10001d50:	00000000 	sll	zero,zero,0x0
10001d54:	27bd0008 	addiu	sp,sp,8
10001d58:	0800129f 	j	10004a7c <player1_set_attack>
10001d5c:	00000000 	sll	zero,zero,0x0
10001d60:	27bd0008 	addiu	sp,sp,8
10001d64:	080014b1 	j	100052c4 <planeI_set_attack>
10001d68:	00000000 	sll	zero,zero,0x0
10001d6c:	27bd0008 	addiu	sp,sp,8
10001d70:	08000dde 	j	10003778 <bullet_set_attack>
10001d74:	00000000 	sll	zero,zero,0x0
10001d78:	27bd0008 	addiu	sp,sp,8
10001d7c:	08000301 	j	10000c04 <planeX_set_attack>
10001d80:	00000000 	sll	zero,zero,0x0
10001d84:	27bd0008 	addiu	sp,sp,8
10001d88:	080013a9 	j	10004ea4 <planeU_set_attack>
10001d8c:	00000000 	sll	zero,zero,0x0
10001d90:	27bd0008 	addiu	sp,sp,8
10001d94:	08001015 	j	10004054 <planeT_set_attack>
10001d98:	00000000 	sll	zero,zero,0x0

10001d9c <battle_virtual_get_hp>:
10001d9c:	90820001 	lbu	v0,1(a0)
10001da0:	27bdfff8 	addiu	sp,sp,-8
10001da4:	a3a20001 	sb	v0,1(sp)
10001da8:	93a20001 	lbu	v0,1(sp)
10001dac:	90830000 	lbu	v1,0(a0)
10001db0:	00021600 	sll	v0,v0,0x18
10001db4:	00021603 	sra	v0,v0,0x18
10001db8:	a3a30000 	sb	v1,0(sp)
10001dbc:	1040001d 	beqz	v0,10001e34 <battle_virtual_get_hp+0x98>
10001dc0:	00000000 	sll	zero,zero,0x0
10001dc4:	93a20000 	lbu	v0,0(sp)
10001dc8:	2442ffb7 	addiu	v0,v0,-73
10001dcc:	304200ff 	andi	v0,v0,0xff
10001dd0:	2c430028 	sltiu	v1,v0,40
10001dd4:	10600017 	beqz	v1,10001e34 <battle_virtual_get_hp+0x98>
10001dd8:	00000000 	sll	zero,zero,0x0
10001ddc:	3c03100e 	lui	v1,0x100e
10001de0:	00021080 	sll	v0,v0,0x2
10001de4:	246366b8 	addiu	v1,v1,26296
10001de8:	00621021 	addu	v0,v1,v0
10001dec:	8c420000 	lw	v0,0(v0)
10001df0:	00400008 	jr	v0
10001df4:	00000000 	sll	zero,zero,0x0
10001df8:	27bd0008 	addiu	sp,sp,8
10001dfc:	080012a2 	j	10004a88 <player1_get_hp>
10001e00:	00000000 	sll	zero,zero,0x0
10001e04:	27bd0008 	addiu	sp,sp,8
10001e08:	080014b4 	j	100052d0 <planeI_get_hp>
10001e0c:	00000000 	sll	zero,zero,0x0
10001e10:	27bd0008 	addiu	sp,sp,8
10001e14:	08001018 	j	10004060 <planeT_get_hp>
10001e18:	00000000 	sll	zero,zero,0x0
10001e1c:	27bd0008 	addiu	sp,sp,8
10001e20:	080013ac 	j	10004eb0 <planeU_get_hp>
10001e24:	00000000 	sll	zero,zero,0x0
10001e28:	27bd0008 	addiu	sp,sp,8
10001e2c:	08000304 	j	10000c10 <planeX_get_hp>
10001e30:	00000000 	sll	zero,zero,0x0
10001e34:	2402ffff 	addiu	v0,zero,-1
10001e38:	27bd0008 	addiu	sp,sp,8
10001e3c:	03e00008 	jr	ra
10001e40:	00000000 	sll	zero,zero,0x0
	...

10001e50 <cp_virtual_draw>:
10001e50:	90820001 	lbu	v0,1(a0)
10001e54:	27bdfff8 	addiu	sp,sp,-8
10001e58:	a3a20001 	sb	v0,1(sp)
10001e5c:	93a20001 	lbu	v0,1(sp)
10001e60:	90830000 	lbu	v1,0(a0)
10001e64:	00021600 	sll	v0,v0,0x18
10001e68:	00021603 	sra	v0,v0,0x18
10001e6c:	a3a30000 	sb	v1,0(sp)
10001e70:	1040000e 	beqz	v0,10001eac <cp_virtual_draw+0x5c>
10001e74:	00000000 	sll	zero,zero,0x0
10001e78:	93a20000 	lbu	v0,0(sp)
10001e7c:	2442ffcd 	addiu	v0,v0,-51
10001e80:	304200ff 	andi	v0,v0,0xff
10001e84:	2c43003e 	sltiu	v1,v0,62
10001e88:	10600008 	beqz	v1,10001eac <cp_virtual_draw+0x5c>
10001e8c:	00000000 	sll	zero,zero,0x0
10001e90:	3c03100e 	lui	v1,0x100e
10001e94:	00021080 	sll	v0,v0,0x2
10001e98:	24636760 	addiu	v1,v1,26464
10001e9c:	00621021 	addu	v0,v1,v0
10001ea0:	8c420000 	lw	v0,0(v0)
10001ea4:	00400008 	jr	v0
10001ea8:	00000000 	sll	zero,zero,0x0
10001eac:	27bd0008 	addiu	sp,sp,8
10001eb0:	03e00008 	jr	ra
10001eb4:	00000000 	sll	zero,zero,0x0
10001eb8:	27bd0008 	addiu	sp,sp,8
10001ebc:	080005c6 	j	10001718 <player2_draw>
10001ec0:	00000000 	sll	zero,zero,0x0
10001ec4:	27bd0008 	addiu	sp,sp,8
10001ec8:	0800034d 	j	10000d34 <bigExplosion3_draw>
10001ecc:	00000000 	sll	zero,zero,0x0
10001ed0:	27bd0008 	addiu	sp,sp,8
10001ed4:	08000da2 	j	10003688 <bullet_draw>
10001ed8:	00000000 	sll	zero,zero,0x0
10001edc:	27bd0008 	addiu	sp,sp,8
10001ee0:	0800094e 	j	10002538 <circle_draw>
10001ee4:	00000000 	sll	zero,zero,0x0
10001ee8:	27bd0008 	addiu	sp,sp,8
10001eec:	0800141e 	j	10005078 <planeI_draw>
10001ef0:	00000000 	sll	zero,zero,0x0
10001ef4:	27bd0008 	addiu	sp,sp,8
10001ef8:	08001066 	j	10004198 <line_draw>
10001efc:	00000000 	sll	zero,zero,0x0
10001f00:	27bd0008 	addiu	sp,sp,8
10001f04:	080011d2 	j	10004748 <player1_draw>
10001f08:	00000000 	sll	zero,zero,0x0
10001f0c:	27bd0008 	addiu	sp,sp,8
10001f10:	080000d2 	j	10000348 <rect_draw>
10001f14:	00000000 	sll	zero,zero,0x0
10001f18:	27bd0008 	addiu	sp,sp,8
10001f1c:	08000f82 	j	10003e08 <planeT_draw>
10001f20:	00000000 	sll	zero,zero,0x0
10001f24:	27bd0008 	addiu	sp,sp,8
10001f28:	08001316 	j	10004c58 <planeU_draw>
10001f2c:	00000000 	sll	zero,zero,0x0
10001f30:	27bd0008 	addiu	sp,sp,8
10001f34:	0800026e 	j	100009b8 <planeX_draw>
10001f38:	00000000 	sll	zero,zero,0x0

10001f3c <cp_virtual_delete>:
10001f3c:	90820001 	lbu	v0,1(a0)
10001f40:	27bdfff8 	addiu	sp,sp,-8
10001f44:	a3a20001 	sb	v0,1(sp)
10001f48:	93a20001 	lbu	v0,1(sp)
10001f4c:	90830000 	lbu	v1,0(a0)
10001f50:	00021600 	sll	v0,v0,0x18
10001f54:	00021603 	sra	v0,v0,0x18
10001f58:	a3a30000 	sb	v1,0(sp)
10001f5c:	1040000e 	beqz	v0,10001f98 <cp_virtual_delete+0x5c>
10001f60:	00000000 	sll	zero,zero,0x0
10001f64:	93a20000 	lbu	v0,0(sp)
10001f68:	2442ffcd 	addiu	v0,v0,-51
10001f6c:	304200ff 	andi	v0,v0,0xff
10001f70:	2c43003e 	sltiu	v1,v0,62
10001f74:	10600008 	beqz	v1,10001f98 <cp_virtual_delete+0x5c>
10001f78:	00000000 	sll	zero,zero,0x0
10001f7c:	3c03100e 	lui	v1,0x100e
10001f80:	00021080 	sll	v0,v0,0x2
10001f84:	24636858 	addiu	v1,v1,26712
10001f88:	00621021 	addu	v0,v1,v0
10001f8c:	8c420000 	lw	v0,0(v0)
10001f90:	00400008 	jr	v0
10001f94:	00000000 	sll	zero,zero,0x0
10001f98:	27bd0008 	addiu	sp,sp,8
10001f9c:	03e00008 	jr	ra
10001fa0:	00000000 	sll	zero,zero,0x0
10001fa4:	27bd0008 	addiu	sp,sp,8
10001fa8:	080005b9 	j	100016e4 <player2_delete>
10001fac:	00000000 	sll	zero,zero,0x0
10001fb0:	27bd0008 	addiu	sp,sp,8
10001fb4:	0800034a 	j	10000d28 <bigExplosion3_delete>
10001fb8:	00000000 	sll	zero,zero,0x0
10001fbc:	27bd0008 	addiu	sp,sp,8
10001fc0:	08000d9f 	j	1000367c <bullet_delete>
10001fc4:	00000000 	sll	zero,zero,0x0
10001fc8:	27bd0008 	addiu	sp,sp,8
10001fcc:	0800094b 	j	1000252c <circle_delete>
10001fd0:	00000000 	sll	zero,zero,0x0
10001fd4:	27bd0008 	addiu	sp,sp,8
10001fd8:	08001411 	j	10005044 <planeI_delete>
10001fdc:	00000000 	sll	zero,zero,0x0
10001fe0:	27bd0008 	addiu	sp,sp,8
10001fe4:	08001063 	j	1000418c <line_delete>
10001fe8:	00000000 	sll	zero,zero,0x0
10001fec:	27bd0008 	addiu	sp,sp,8
10001ff0:	080011c5 	j	10004714 <player1_delete>
10001ff4:	00000000 	sll	zero,zero,0x0
10001ff8:	27bd0008 	addiu	sp,sp,8
10001ffc:	080000cf 	j	1000033c <rect_delete>
10002000:	00000000 	sll	zero,zero,0x0
10002004:	27bd0008 	addiu	sp,sp,8
10002008:	08000f75 	j	10003dd4 <planeT_delete>
1000200c:	00000000 	sll	zero,zero,0x0
10002010:	27bd0008 	addiu	sp,sp,8
10002014:	08001309 	j	10004c24 <planeU_delete>
10002018:	00000000 	sll	zero,zero,0x0
1000201c:	27bd0008 	addiu	sp,sp,8
10002020:	08000261 	j	10000984 <planeX_delete>
10002024:	00000000 	sll	zero,zero,0x0

10002028 <cp_virtual_move>:
10002028:	90820001 	lbu	v0,1(a0)
1000202c:	27bdfff8 	addiu	sp,sp,-8
10002030:	a3a20001 	sb	v0,1(sp)
10002034:	93a20001 	lbu	v0,1(sp)
10002038:	90830000 	lbu	v1,0(a0)
1000203c:	00021600 	sll	v0,v0,0x18
10002040:	00021603 	sra	v0,v0,0x18
10002044:	a3a30000 	sb	v1,0(sp)
10002048:	1040000e 	beqz	v0,10002084 <cp_virtual_move+0x5c>
1000204c:	00000000 	sll	zero,zero,0x0
10002050:	93a20000 	lbu	v0,0(sp)
10002054:	2442ffcd 	addiu	v0,v0,-51
10002058:	304200ff 	andi	v0,v0,0xff
1000205c:	2c43003e 	sltiu	v1,v0,62
10002060:	10600008 	beqz	v1,10002084 <cp_virtual_move+0x5c>
10002064:	00000000 	sll	zero,zero,0x0
10002068:	3c03100e 	lui	v1,0x100e
1000206c:	00021080 	sll	v0,v0,0x2
10002070:	24636950 	addiu	v1,v1,26960
10002074:	00621021 	addu	v0,v1,v0
10002078:	8c420000 	lw	v0,0(v0)
1000207c:	00400008 	jr	v0
10002080:	00000000 	sll	zero,zero,0x0
10002084:	27bd0008 	addiu	sp,sp,8
10002088:	03e00008 	jr	ra
1000208c:	00000000 	sll	zero,zero,0x0
10002090:	27bd0008 	addiu	sp,sp,8
10002094:	08000642 	j	10001908 <player2_move>
10002098:	00000000 	sll	zero,zero,0x0
1000209c:	27bd0008 	addiu	sp,sp,8
100020a0:	080003bd 	j	10000ef4 <bigExplosion3_move>
100020a4:	00000000 	sll	zero,zero,0x0
100020a8:	27bd0008 	addiu	sp,sp,8
100020ac:	08000dc9 	j	10003724 <bullet_move>
100020b0:	00000000 	sll	zero,zero,0x0
100020b4:	27bd0008 	addiu	sp,sp,8
100020b8:	0800098f 	j	1000263c <circle_move>
100020bc:	00000000 	sll	zero,zero,0x0
100020c0:	27bd0008 	addiu	sp,sp,8
100020c4:	08001482 	j	10005208 <planeI_move>
100020c8:	00000000 	sll	zero,zero,0x0
100020cc:	27bd0008 	addiu	sp,sp,8
100020d0:	0800109b 	j	1000426c <line_move>
100020d4:	00000000 	sll	zero,zero,0x0
100020d8:	27bd0008 	addiu	sp,sp,8
100020dc:	0800124e 	j	10004938 <player1_move>
100020e0:	00000000 	sll	zero,zero,0x0
100020e4:	27bd0008 	addiu	sp,sp,8
100020e8:	0800012e 	j	100004b8 <rect_move>
100020ec:	00000000 	sll	zero,zero,0x0
100020f0:	27bd0008 	addiu	sp,sp,8
100020f4:	08000fe6 	j	10003f98 <planeT_move>
100020f8:	00000000 	sll	zero,zero,0x0
100020fc:	27bd0008 	addiu	sp,sp,8
10002100:	0800137a 	j	10004de8 <planeU_move>
10002104:	00000000 	sll	zero,zero,0x0
10002108:	27bd0008 	addiu	sp,sp,8
1000210c:	080002d2 	j	10000b48 <planeX_move>
10002110:	00000000 	sll	zero,zero,0x0

10002114 <cp_virtual_locate>:
10002114:	90820001 	lbu	v0,1(a0)
10002118:	27bdfff8 	addiu	sp,sp,-8
1000211c:	a3a20001 	sb	v0,1(sp)
10002120:	93a20001 	lbu	v0,1(sp)
10002124:	90830000 	lbu	v1,0(a0)
10002128:	00021600 	sll	v0,v0,0x18
1000212c:	00021603 	sra	v0,v0,0x18
10002130:	a3a30000 	sb	v1,0(sp)
10002134:	1040000e 	beqz	v0,10002170 <cp_virtual_locate+0x5c>
10002138:	00000000 	sll	zero,zero,0x0
1000213c:	93a20000 	lbu	v0,0(sp)
10002140:	2442ffbe 	addiu	v0,v0,-66
10002144:	304200ff 	andi	v0,v0,0xff
10002148:	2c43002f 	sltiu	v1,v0,47
1000214c:	10600008 	beqz	v1,10002170 <cp_virtual_locate+0x5c>
10002150:	00000000 	sll	zero,zero,0x0
10002154:	3c03100e 	lui	v1,0x100e
10002158:	00021080 	sll	v0,v0,0x2
1000215c:	24636a48 	addiu	v1,v1,27208
10002160:	00621021 	addu	v0,v1,v0
10002164:	8c420000 	lw	v0,0(v0)
10002168:	00400008 	jr	v0
1000216c:	00000000 	sll	zero,zero,0x0
10002170:	27bd0008 	addiu	sp,sp,8
10002174:	03e00008 	jr	ra
10002178:	00000000 	sll	zero,zero,0x0
1000217c:	27bd0008 	addiu	sp,sp,8
10002180:	08000636 	j	100018d8 <player2_locate>
10002184:	00000000 	sll	zero,zero,0x0
10002188:	27bd0008 	addiu	sp,sp,8
1000218c:	080002dc 	j	10000b70 <planeX_locate>
10002190:	00000000 	sll	zero,zero,0x0
10002194:	27bd0008 	addiu	sp,sp,8
10002198:	08001384 	j	10004e10 <planeU_locate>
1000219c:	00000000 	sll	zero,zero,0x0
100021a0:	27bd0008 	addiu	sp,sp,8
100021a4:	08000ff0 	j	10003fc0 <planeT_locate>
100021a8:	00000000 	sll	zero,zero,0x0
100021ac:	27bd0008 	addiu	sp,sp,8
100021b0:	08001242 	j	10004908 <player1_locate>
100021b4:	00000000 	sll	zero,zero,0x0
100021b8:	27bd0008 	addiu	sp,sp,8
100021bc:	0800148c 	j	10005230 <planeI_locate>
100021c0:	00000000 	sll	zero,zero,0x0
100021c4:	27bd0008 	addiu	sp,sp,8
100021c8:	08000dbd 	j	100036f4 <bullet_locate>
100021cc:	00000000 	sll	zero,zero,0x0

100021d0 <cp_virtual_isPlayer>:
100021d0:	90820001 	lbu	v0,1(a0)
100021d4:	27bdfff8 	addiu	sp,sp,-8
100021d8:	a3a20001 	sb	v0,1(sp)
100021dc:	93a20001 	lbu	v0,1(sp)
100021e0:	90830000 	lbu	v1,0(a0)
100021e4:	00021600 	sll	v0,v0,0x18
100021e8:	00021603 	sra	v0,v0,0x18
100021ec:	a3a30000 	sb	v1,0(sp)
100021f0:	1040000a 	beqz	v0,1000221c <cp_virtual_isPlayer+0x4c>
100021f4:	00000000 	sll	zero,zero,0x0
100021f8:	93a20000 	lbu	v0,0(sp)
100021fc:	24030050 	addiu	v1,zero,80
10002200:	00021600 	sll	v0,v0,0x18
10002204:	00021603 	sra	v0,v0,0x18
10002208:	10430008 	beq	v0,v1,1000222c <cp_virtual_isPlayer+0x5c>
1000220c:	00000000 	sll	zero,zero,0x0
10002210:	24030070 	addiu	v1,zero,112
10002214:	10430005 	beq	v0,v1,1000222c <cp_virtual_isPlayer+0x5c>
10002218:	00000000 	sll	zero,zero,0x0
1000221c:	00001025 	or	v0,zero,zero
10002220:	27bd0008 	addiu	sp,sp,8
10002224:	03e00008 	jr	ra
10002228:	00000000 	sll	zero,zero,0x0
1000222c:	24020001 	addiu	v0,zero,1
10002230:	27bd0008 	addiu	sp,sp,8
10002234:	03e00008 	jr	ra
10002238:	00000000 	sll	zero,zero,0x0

1000223c <cp_virtual_isPlayer1>:
1000223c:	90820001 	lbu	v0,1(a0)
10002240:	27bdfff8 	addiu	sp,sp,-8
10002244:	a3a20001 	sb	v0,1(sp)
10002248:	93a20001 	lbu	v0,1(sp)
1000224c:	90830000 	lbu	v1,0(a0)
10002250:	00021600 	sll	v0,v0,0x18
10002254:	00021603 	sra	v0,v0,0x18
10002258:	a3a30000 	sb	v1,0(sp)
1000225c:	10400009 	beqz	v0,10002284 <cp_virtual_isPlayer1+0x48>
10002260:	00000000 	sll	zero,zero,0x0
10002264:	93a20000 	lbu	v0,0(sp)
10002268:	27bd0008 	addiu	sp,sp,8
1000226c:	00021600 	sll	v0,v0,0x18
10002270:	00021603 	sra	v0,v0,0x18
10002274:	38420050 	xori	v0,v0,0x50
10002278:	2c420001 	sltiu	v0,v0,1
1000227c:	03e00008 	jr	ra
10002280:	00000000 	sll	zero,zero,0x0
10002284:	00001025 	or	v0,zero,zero
10002288:	27bd0008 	addiu	sp,sp,8
1000228c:	03e00008 	jr	ra
10002290:	00000000 	sll	zero,zero,0x0

10002294 <cp_virtual_isPlayer2>:
10002294:	90820001 	lbu	v0,1(a0)
10002298:	27bdfff8 	addiu	sp,sp,-8
1000229c:	a3a20001 	sb	v0,1(sp)
100022a0:	93a20001 	lbu	v0,1(sp)
100022a4:	90830000 	lbu	v1,0(a0)
100022a8:	00021600 	sll	v0,v0,0x18
100022ac:	00021603 	sra	v0,v0,0x18
100022b0:	a3a30000 	sb	v1,0(sp)
100022b4:	10400009 	beqz	v0,100022dc <cp_virtual_isPlayer2+0x48>
100022b8:	00000000 	sll	zero,zero,0x0
100022bc:	93a20000 	lbu	v0,0(sp)
100022c0:	27bd0008 	addiu	sp,sp,8
100022c4:	00021600 	sll	v0,v0,0x18
100022c8:	00021603 	sra	v0,v0,0x18
100022cc:	38420070 	xori	v0,v0,0x70
100022d0:	2c420001 	sltiu	v0,v0,1
100022d4:	03e00008 	jr	ra
100022d8:	00000000 	sll	zero,zero,0x0
100022dc:	00001025 	or	v0,zero,zero
100022e0:	27bd0008 	addiu	sp,sp,8
100022e4:	03e00008 	jr	ra
100022e8:	00000000 	sll	zero,zero,0x0

100022ec <cp_virtual_isBullet>:
100022ec:	90820001 	lbu	v0,1(a0)
100022f0:	27bdfff8 	addiu	sp,sp,-8
100022f4:	a3a20001 	sb	v0,1(sp)
100022f8:	93a20001 	lbu	v0,1(sp)
100022fc:	90830000 	lbu	v1,0(a0)
10002300:	00021600 	sll	v0,v0,0x18
10002304:	00021603 	sra	v0,v0,0x18
10002308:	a3a30000 	sb	v1,0(sp)
1000230c:	10400009 	beqz	v0,10002334 <cp_virtual_isBullet+0x48>
10002310:	00000000 	sll	zero,zero,0x0
10002314:	93a20000 	lbu	v0,0(sp)
10002318:	27bd0008 	addiu	sp,sp,8
1000231c:	00021600 	sll	v0,v0,0x18
10002320:	00021603 	sra	v0,v0,0x18
10002324:	38420042 	xori	v0,v0,0x42
10002328:	2c420001 	sltiu	v0,v0,1
1000232c:	03e00008 	jr	ra
10002330:	00000000 	sll	zero,zero,0x0
10002334:	00001025 	or	v0,zero,zero
10002338:	27bd0008 	addiu	sp,sp,8
1000233c:	03e00008 	jr	ra
10002340:	00000000 	sll	zero,zero,0x0

10002344 <cp_virtual_isEnemyBullet>:
10002344:	90820001 	lbu	v0,1(a0)
10002348:	27bdfff8 	addiu	sp,sp,-8
1000234c:	a3a20001 	sb	v0,1(sp)
10002350:	93a20001 	lbu	v0,1(sp)
10002354:	90830000 	lbu	v1,0(a0)
10002358:	00021600 	sll	v0,v0,0x18
1000235c:	00021603 	sra	v0,v0,0x18
10002360:	a3a30000 	sb	v1,0(sp)
10002364:	10400007 	beqz	v0,10002384 <cp_virtual_isEnemyBullet+0x40>
10002368:	00000000 	sll	zero,zero,0x0
1000236c:	93a20000 	lbu	v0,0(sp)
10002370:	24030042 	addiu	v1,zero,66
10002374:	00021600 	sll	v0,v0,0x18
10002378:	00021603 	sra	v0,v0,0x18
1000237c:	10430005 	beq	v0,v1,10002394 <cp_virtual_isEnemyBullet+0x50>
10002380:	00000000 	sll	zero,zero,0x0
10002384:	00001025 	or	v0,zero,zero
10002388:	27bd0008 	addiu	sp,sp,8
1000238c:	03e00008 	jr	ra
10002390:	00000000 	sll	zero,zero,0x0
10002394:	8c820010 	lw	v0,16(a0)
10002398:	27bd0008 	addiu	sp,sp,8
1000239c:	0002102a 	slt	v0,zero,v0
100023a0:	03e00008 	jr	ra
100023a4:	00000000 	sll	zero,zero,0x0

100023a8 <cp_virtual_isEnemy>:
100023a8:	90820001 	lbu	v0,1(a0)
100023ac:	27bdfff8 	addiu	sp,sp,-8
100023b0:	a3a20001 	sb	v0,1(sp)
100023b4:	93a20001 	lbu	v0,1(sp)
100023b8:	90830000 	lbu	v1,0(a0)
100023bc:	00021600 	sll	v0,v0,0x18
100023c0:	00021603 	sra	v0,v0,0x18
100023c4:	a3a30000 	sb	v1,0(sp)
100023c8:	10400007 	beqz	v0,100023e8 <cp_virtual_isEnemy+0x40>
100023cc:	00000000 	sll	zero,zero,0x0
100023d0:	93a20000 	lbu	v0,0(sp)
100023d4:	2442ffb7 	addiu	v0,v0,-73
100023d8:	304300ff 	andi	v1,v0,0xff
100023dc:	2c620010 	sltiu	v0,v1,16
100023e0:	14400005 	bnez	v0,100023f8 <cp_virtual_isEnemy+0x50>
100023e4:	00000000 	sll	zero,zero,0x0
100023e8:	00001025 	or	v0,zero,zero
100023ec:	27bd0008 	addiu	sp,sp,8
100023f0:	03e00008 	jr	ra
100023f4:	00000000 	sll	zero,zero,0x0
100023f8:	24020001 	addiu	v0,zero,1
100023fc:	00621004 	sllv	v0,v0,v1
10002400:	30429801 	andi	v0,v0,0x9801
10002404:	0002102b 	sltu	v0,zero,v0
10002408:	27bd0008 	addiu	sp,sp,8
1000240c:	03e00008 	jr	ra
10002410:	00000000 	sll	zero,zero,0x0
	...

10002420 <build_circle>:
10002420:	3c091033 	lui	t1,0x1033
10002424:	27bdffd8 	addiu	sp,sp,-40
10002428:	2529d0f0 	addiu	t1,t1,-12048
1000242c:	3c0a51eb 	lui	t2,0x51eb
10002430:	8d280fa0 	lw	t0,4000(t1)
10002434:	afa70034 	sw	a3,52(sp)
10002438:	afbf0024 	sw	ra,36(sp)
1000243c:	afa40028 	sw	a0,40(sp)
10002440:	afa5002c 	sw	a1,44(sp)
10002444:	afa60030 	sw	a2,48(sp)
10002448:	240700c8 	addiu	a3,zero,200
1000244c:	354a851f 	ori	t2,t2,0x851f
10002450:	10000004 	beqz	zero,10002464 <build_circle+0x44>
10002454:	00000000 	sll	zero,zero,0x0
10002458:	00804025 	or	t0,a0,zero
1000245c:	10e00029 	beqz	a3,10002504 <build_circle+0xe4>
10002460:	00000000 	sll	zero,zero,0x0
10002464:	25060001 	addiu	a2,t0,1
10002468:	00ca0018 	mult	a2,t2
1000246c:	00081080 	sll	v0,t0,0x2
10002470:	00002810 	mfhi	a1
10002474:	000627c3 	sra	a0,a2,0x1f
10002478:	00051983 	sra	v1,a1,0x6
1000247c:	00481021 	addu	v0,v0,t0
10002480:	00642023 	subu	a0,v1,a0
10002484:	00021080 	sll	v0,v0,0x2
10002488:	00041840 	sll	v1,a0,0x1
1000248c:	01221021 	addu	v0,t1,v0
10002490:	00641821 	addu	v1,v1,a0
10002494:	90450001 	lbu	a1,1(v0)
10002498:	000318c0 	sll	v1,v1,0x3
1000249c:	00641821 	addu	v1,v1,a0
100024a0:	00052e00 	sll	a1,a1,0x18
100024a4:	000318c0 	sll	v1,v1,0x3
100024a8:	00052e03 	sra	a1,a1,0x18
100024ac:	24e7ffff 	addiu	a3,a3,-1
100024b0:	00c32023 	subu	a0,a2,v1
100024b4:	14a0ffe8 	bnez	a1,10002458 <build_circle+0x38>
100024b8:	00000000 	sll	zero,zero,0x0
100024bc:	24030001 	addiu	v1,zero,1
100024c0:	ad240fa0 	sw	a0,4000(t1)
100024c4:	24040043 	addiu	a0,zero,67
100024c8:	a0430001 	sb	v1,1(v0)
100024cc:	a0440000 	sb	a0,0(v0)
100024d0:	a0430001 	sb	v1,1(v0)
100024d4:	8fa30028 	lw	v1,40(sp)
100024d8:	ac430004 	sw	v1,4(v0)
100024dc:	8fa3002c 	lw	v1,44(sp)
100024e0:	ac430008 	sw	v1,8(v0)
100024e4:	8fa30030 	lw	v1,48(sp)
100024e8:	ac43000c 	sw	v1,12(v0)
100024ec:	8fa30034 	lw	v1,52(sp)
100024f0:	ac430010 	sw	v1,16(v0)
100024f4:	8fbf0024 	lw	ra,36(sp)
100024f8:	27bd0028 	addiu	sp,sp,40
100024fc:	03e00008 	jr	ra
10002500:	00000000 	sll	zero,zero,0x0
10002504:	3c041000 	lui	a0,0x1000
10002508:	248474c8 	addiu	a0,a0,29896
1000250c:	ad280fa0 	sw	t0,4000(t1)
10002510:	0c000cb5 	jal	100032d4 <printf>
10002514:	00000000 	sll	zero,zero,0x0
10002518:	8fbf0024 	lw	ra,36(sp)
1000251c:	00001025 	or	v0,zero,zero
10002520:	27bd0028 	addiu	sp,sp,40
10002524:	03e00008 	jr	ra
10002528:	00000000 	sll	zero,zero,0x0

1000252c <circle_delete>:
1000252c:	a0800001 	sb	zero,1(a0)
10002530:	03e00008 	jr	ra
10002534:	00000000 	sll	zero,zero,0x0

10002538 <circle_draw>:
10002538:	27bdffd0 	addiu	sp,sp,-48
1000253c:	afb00028 	sw	s0,40(sp)
10002540:	afbf002c 	sw	ra,44(sp)
10002544:	00808025 	or	s0,a0,zero
10002548:	8c840010 	lw	a0,16(a0)
1000254c:	0c000550 	jal	10001540 <color_to_int>
10002550:	00000000 	sll	zero,zero,0x0
10002554:	8e03000c 	lw	v1,12(s0)
10002558:	8e050004 	lw	a1,4(s0)
1000255c:	8e040008 	lw	a0,8(s0)
10002560:	00033040 	sll	a2,v1,0x1
10002564:	00a32823 	subu	a1,a1,v1
10002568:	00832023 	subu	a0,a0,v1
1000256c:	70634002 	mul	t0,v1,v1
10002570:	afa50010 	sw	a1,16(sp)
10002574:	afa40014 	sw	a0,20(sp)
10002578:	afa6001c 	sw	a2,28(sp)
1000257c:	afa60020 	sw	a2,32(sp)
10002580:	18c00023 	blez	a2,10002610 <circle_draw+0xd8>
10002584:	00000000 	sll	zero,zero,0x0
10002588:	3c0e1021 	lui	t6,0x1021
1000258c:	00036023 	negu	t4,v1
10002590:	25cea13c 	addiu	t6,t6,-24260
10002594:	000368c0 	sll	t5,v1,0x3
10002598:	01c05825 	or	t3,t6,zero
1000259c:	00c33023 	subu	a2,a2,v1
100025a0:	01805025 	or	t2,t4,zero
100025a4:	3c090100 	lui	t1,0x100
100025a8:	714a3802 	mul	a3,t2,t2
100025ac:	01602825 	or	a1,t3,zero
100025b0:	01802025 	or	a0,t4,zero
100025b4:	70841802 	mul	v1,a0,a0
100025b8:	01207825 	or	t7,t1,zero
100025bc:	00671821 	addu	v1,v1,a3
100025c0:	0103182a 	slt	v1,t0,v1
100025c4:	0043780a 	movz	t7,v0,v1
100025c8:	24840001 	addiu	a0,a0,1
100025cc:	acaf0000 	sw	t7,0(a1)
100025d0:	24a50004 	addiu	a1,a1,4
100025d4:	1486fff7 	bne	a0,a2,100025b4 <circle_draw+0x7c>
100025d8:	00000000 	sll	zero,zero,0x0
100025dc:	254a0001 	addiu	t2,t2,1
100025e0:	016d5821 	addu	t3,t3,t5
100025e4:	14cafff0 	bne	a2,t2,100025a8 <circle_draw+0x70>
100025e8:	00000000 	sll	zero,zero,0x0
100025ec:	27a40010 	addiu	a0,sp,16
100025f0:	afae0018 	sw	t6,24(sp)
100025f4:	0c000e8c 	jal	10003a30 <fb_add>
100025f8:	00000000 	sll	zero,zero,0x0
100025fc:	8fbf002c 	lw	ra,44(sp)
10002600:	8fb00028 	lw	s0,40(sp)
10002604:	27bd0030 	addiu	sp,sp,48
10002608:	03e00008 	jr	ra
1000260c:	00000000 	sll	zero,zero,0x0
10002610:	3c0e1021 	lui	t6,0x1021
10002614:	25cea13c 	addiu	t6,t6,-24260
10002618:	27a40010 	addiu	a0,sp,16
1000261c:	afae0018 	sw	t6,24(sp)
10002620:	0c000e8c 	jal	10003a30 <fb_add>
10002624:	00000000 	sll	zero,zero,0x0
10002628:	8fbf002c 	lw	ra,44(sp)
1000262c:	8fb00028 	lw	s0,40(sp)
10002630:	27bd0030 	addiu	sp,sp,48
10002634:	03e00008 	jr	ra
10002638:	00000000 	sll	zero,zero,0x0

1000263c <circle_move>:
1000263c:	8c820004 	lw	v0,4(a0)
10002640:	00452821 	addu	a1,v0,a1
10002644:	ac850004 	sw	a1,4(a0)
10002648:	8c820008 	lw	v0,8(a0)
1000264c:	00463021 	addu	a2,v0,a2
10002650:	ac860008 	sw	a2,8(a0)
10002654:	03e00008 	jr	ra
10002658:	00000000 	sll	zero,zero,0x0
1000265c:	00000000 	sll	zero,zero,0x0

10002660 <getFlag>:
10002660:	80840000 	lb	a0,0(a0)
10002664:	2482ffe0 	addiu	v0,a0,-32
10002668:	304300ff 	andi	v1,v0,0xff
1000266c:	2c620011 	sltiu	v0,v1,17
10002670:	14400004 	bnez	v0,10002684 <getFlag+0x24>
10002674:	00000000 	sll	zero,zero,0x0
10002678:	00001025 	or	v0,zero,zero
1000267c:	03e00008 	jr	ra
10002680:	00000000 	sll	zero,zero,0x0
10002684:	3c020001 	lui	v0,0x1
10002688:	24422809 	addiu	v0,v0,10249
1000268c:	00621006 	srlv	v0,v0,v1
10002690:	30420001 	andi	v0,v0,0x1
10002694:	1040fff8 	beqz	v0,10002678 <getFlag+0x18>
10002698:	00000000 	sll	zero,zero,0x0
1000269c:	a0a40000 	sb	a0,0(a1)
100026a0:	24020001 	addiu	v0,zero,1
100026a4:	03e00008 	jr	ra
100026a8:	00000000 	sll	zero,zero,0x0

100026ac <getWidth>:
100026ac:	90820000 	lbu	v0,0(a0)
100026b0:	2442ffd0 	addiu	v0,v0,-48
100026b4:	2c42000a 	sltiu	v0,v0,10
100026b8:	10400014 	beqz	v0,1000270c <getWidth+0x60>
100026bc:	00000000 	sll	zero,zero,0x0
100026c0:	8ca30000 	lw	v1,0(a1)
100026c4:	00001025 	or	v0,zero,zero
100026c8:	00033080 	sll	a2,v1,0x2
100026cc:	00c31821 	addu	v1,a2,v1
100026d0:	00033040 	sll	a2,v1,0x1
100026d4:	aca60000 	sw	a2,0(a1)
100026d8:	80830000 	lb	v1,0(a0)
100026dc:	24840001 	addiu	a0,a0,1
100026e0:	2463ffd0 	addiu	v1,v1,-48
100026e4:	00661821 	addu	v1,v1,a2
100026e8:	aca30000 	sw	v1,0(a1)
100026ec:	90860000 	lbu	a2,0(a0)
100026f0:	24420001 	addiu	v0,v0,1
100026f4:	24c6ffd0 	addiu	a2,a2,-48
100026f8:	2cc6000a 	sltiu	a2,a2,10
100026fc:	14c0fff2 	bnez	a2,100026c8 <getWidth+0x1c>
10002700:	00000000 	sll	zero,zero,0x0
10002704:	03e00008 	jr	ra
10002708:	00000000 	sll	zero,zero,0x0
1000270c:	00001025 	or	v0,zero,zero
10002710:	03e00008 	jr	ra
10002714:	00000000 	sll	zero,zero,0x0

10002718 <getPercsion>:
10002718:	80830000 	lb	v1,0(a0)
1000271c:	2402002e 	addiu	v0,zero,46
10002720:	10620004 	beq	v1,v0,10002734 <getPercsion+0x1c>
10002724:	00000000 	sll	zero,zero,0x0
10002728:	00001025 	or	v0,zero,zero
1000272c:	03e00008 	jr	ra
10002730:	00000000 	sll	zero,zero,0x0
10002734:	90820001 	lbu	v0,1(a0)
10002738:	24840001 	addiu	a0,a0,1
1000273c:	2442ffd0 	addiu	v0,v0,-48
10002740:	2c42000a 	sltiu	v0,v0,10
10002744:	10400014 	beqz	v0,10002798 <getPercsion+0x80>
10002748:	00000000 	sll	zero,zero,0x0
1000274c:	8ca30000 	lw	v1,0(a1)
10002750:	24020001 	addiu	v0,zero,1
10002754:	00033080 	sll	a2,v1,0x2
10002758:	00c31821 	addu	v1,a2,v1
1000275c:	00033040 	sll	a2,v1,0x1
10002760:	aca60000 	sw	a2,0(a1)
10002764:	80830000 	lb	v1,0(a0)
10002768:	24840001 	addiu	a0,a0,1
1000276c:	2463ffd0 	addiu	v1,v1,-48
10002770:	00661821 	addu	v1,v1,a2
10002774:	aca30000 	sw	v1,0(a1)
10002778:	90860000 	lbu	a2,0(a0)
1000277c:	24420001 	addiu	v0,v0,1
10002780:	24c6ffd0 	addiu	a2,a2,-48
10002784:	2cc6000a 	sltiu	a2,a2,10
10002788:	14c0fff2 	bnez	a2,10002754 <getPercsion+0x3c>
1000278c:	00000000 	sll	zero,zero,0x0
10002790:	03e00008 	jr	ra
10002794:	00000000 	sll	zero,zero,0x0
10002798:	24020001 	addiu	v0,zero,1
1000279c:	03e00008 	jr	ra
100027a0:	00000000 	sll	zero,zero,0x0

100027a4 <getType>:
100027a4:	80840000 	lb	a0,0(a0)
100027a8:	2482ff9d 	addiu	v0,a0,-99
100027ac:	304300ff 	andi	v1,v0,0xff
100027b0:	2c620013 	sltiu	v0,v1,19
100027b4:	14400009 	bnez	v0,100027dc <getType+0x38>
100027b8:	00000000 	sll	zero,zero,0x0
100027bc:	2402ffdf 	addiu	v0,zero,-33
100027c0:	00821024 	and	v0,a0,v0
100027c4:	24030058 	addiu	v1,zero,88
100027c8:	1043000a 	beq	v0,v1,100027f4 <getType+0x50>
100027cc:	00000000 	sll	zero,zero,0x0
100027d0:	00001025 	or	v0,zero,zero
100027d4:	03e00008 	jr	ra
100027d8:	00000000 	sll	zero,zero,0x0
100027dc:	3c020005 	lui	v0,0x5
100027e0:	24421043 	addiu	v0,v0,4163
100027e4:	00621006 	srlv	v0,v0,v1
100027e8:	30420001 	andi	v0,v0,0x1
100027ec:	1040fff3 	beqz	v0,100027bc <getType+0x18>
100027f0:	00000000 	sll	zero,zero,0x0
100027f4:	a0a40000 	sb	a0,0(a1)
100027f8:	24020001 	addiu	v0,zero,1
100027fc:	03e00008 	jr	ra
10002800:	00000000 	sll	zero,zero,0x0

10002804 <printNum>:
10002804:	27bdff70 	addiu	sp,sp,-144
10002808:	afb10080 	sw	s1,128(sp)
1000280c:	27b10010 	addiu	s1,sp,16
10002810:	afb30088 	sw	s3,136(sp)
10002814:	afb20084 	sw	s2,132(sp)
10002818:	afb0007c 	sw	s0,124(sp)
1000281c:	00a09025 	or	s2,a1,zero
10002820:	00808025 	or	s0,a0,zero
10002824:	00c09825 	or	s3,a2,zero
10002828:	02202025 	or	a0,s1,zero
1000282c:	24060064 	addiu	a2,zero,100
10002830:	00002825 	or	a1,zero,zero
10002834:	afbf008c 	sw	ra,140(sp)
10002838:	0c000df4 	jal	100037d0 <memset>
1000283c:	00000000 	sll	zero,zero,0x0
10002840:	02002025 	or	a0,s0,zero
10002844:	02603825 	or	a3,s3,zero
10002848:	02403025 	or	a2,s2,zero
1000284c:	02202825 	or	a1,s1,zero
10002850:	0c000e18 	jal	10003860 <itoa>
10002854:	00000000 	sll	zero,zero,0x0
10002858:	83a40010 	lb	a0,16(sp)
1000285c:	10800011 	beqz	a0,100028a4 <printNum+0xa0>
10002860:	00000000 	sll	zero,zero,0x0
10002864:	27b00011 	addiu	s0,sp,17
10002868:	0c001b04 	jal	10006c10 <_putc>
1000286c:	00000000 	sll	zero,zero,0x0
10002870:	02111023 	subu	v0,s0,s1
10002874:	26100001 	addiu	s0,s0,1
10002878:	8204ffff 	lb	a0,-1(s0)
1000287c:	1480fffa 	bnez	a0,10002868 <printNum+0x64>
10002880:	00000000 	sll	zero,zero,0x0
10002884:	8fbf008c 	lw	ra,140(sp)
10002888:	8fb30088 	lw	s3,136(sp)
1000288c:	8fb20084 	lw	s2,132(sp)
10002890:	8fb10080 	lw	s1,128(sp)
10002894:	8fb0007c 	lw	s0,124(sp)
10002898:	27bd0090 	addiu	sp,sp,144
1000289c:	03e00008 	jr	ra
100028a0:	00000000 	sll	zero,zero,0x0
100028a4:	8fbf008c 	lw	ra,140(sp)
100028a8:	8fb30088 	lw	s3,136(sp)
100028ac:	8fb20084 	lw	s2,132(sp)
100028b0:	8fb10080 	lw	s1,128(sp)
100028b4:	8fb0007c 	lw	s0,124(sp)
100028b8:	00001025 	or	v0,zero,zero
100028bc:	27bd0090 	addiu	sp,sp,144
100028c0:	03e00008 	jr	ra
100028c4:	00000000 	sll	zero,zero,0x0

100028c8 <printString>:
100028c8:	27bdffe0 	addiu	sp,sp,-32
100028cc:	afb00014 	sw	s0,20(sp)
100028d0:	afbf001c 	sw	ra,28(sp)
100028d4:	afb10018 	sw	s1,24(sp)
100028d8:	00808025 	or	s0,a0,zero
100028dc:	80840000 	lb	a0,0(a0)
100028e0:	10800011 	beqz	a0,10002928 <printString+0x60>
100028e4:	00000000 	sll	zero,zero,0x0
100028e8:	26100001 	addiu	s0,s0,1
100028ec:	00008825 	or	s1,zero,zero
100028f0:	26100001 	addiu	s0,s0,1
100028f4:	0c001b04 	jal	10006c10 <_putc>
100028f8:	00000000 	sll	zero,zero,0x0
100028fc:	8204ffff 	lb	a0,-1(s0)
10002900:	26310001 	addiu	s1,s1,1
10002904:	1480fffa 	bnez	a0,100028f0 <printString+0x28>
10002908:	00000000 	sll	zero,zero,0x0
1000290c:	8fbf001c 	lw	ra,28(sp)
10002910:	02201025 	or	v0,s1,zero
10002914:	8fb00014 	lw	s0,20(sp)
10002918:	8fb10018 	lw	s1,24(sp)
1000291c:	27bd0020 	addiu	sp,sp,32
10002920:	03e00008 	jr	ra
10002924:	00000000 	sll	zero,zero,0x0
10002928:	8fbf001c 	lw	ra,28(sp)
1000292c:	00008825 	or	s1,zero,zero
10002930:	02201025 	or	v0,s1,zero
10002934:	8fb00014 	lw	s0,20(sp)
10002938:	8fb10018 	lw	s1,24(sp)
1000293c:	27bd0020 	addiu	sp,sp,32
10002940:	03e00008 	jr	ra
10002944:	00000000 	sll	zero,zero,0x0

10002948 <printFmtNum>:
10002948:	27bdff60 	addiu	sp,sp,-160
1000294c:	afb70094 	sw	s7,148(sp)
10002950:	afb40088 	sw	s4,136(sp)
10002954:	afb30084 	sw	s3,132(sp)
10002958:	afb20080 	sw	s2,128(sp)
1000295c:	afb1007c 	sw	s1,124(sp)
10002960:	afbf009c 	sw	ra,156(sp)
10002964:	afbe0098 	sw	s8,152(sp)
10002968:	afb60090 	sw	s6,144(sp)
1000296c:	afb5008c 	sw	s5,140(sp)
10002970:	afb00078 	sw	s0,120(sp)
10002974:	8c820000 	lw	v0,0(a0)
10002978:	8fb300b0 	lw	s3,176(sp)
1000297c:	24430004 	addiu	v1,v0,4
10002980:	ac830000 	sw	v1,0(a0)
10002984:	2403000a 	addiu	v1,zero,10
10002988:	00a09025 	or	s2,a1,zero
1000298c:	00c08825 	or	s1,a2,zero
10002990:	00e0b825 	or	s7,a3,zero
10002994:	8fb400b4 	lw	s4,180(sp)
10002998:	8c550000 	lw	s5,0(v0)
1000299c:	16630004 	bne	s3,v1,100029b0 <printFmtNum+0x68>
100029a0:	00000000 	sll	zero,zero,0x0
100029a4:	24020001 	addiu	v0,zero,1
100029a8:	128200c2 	beq	s4,v0,10002cb4 <printFmtNum+0x36c>
100029ac:	00000000 	sll	zero,zero,0x0
100029b0:	02803825 	or	a3,s4,zero
100029b4:	02603025 	or	a2,s3,zero
100029b8:	27a50010 	addiu	a1,sp,16
100029bc:	02a02025 	or	a0,s5,zero
100029c0:	0c000e18 	jal	10003860 <itoa>
100029c4:	00000000 	sll	zero,zero,0x0
100029c8:	00402025 	or	a0,v0,zero
100029cc:	0c000de4 	jal	10003790 <strlen>
100029d0:	00000000 	sll	zero,zero,0x0
100029d4:	02803825 	or	a3,s4,zero
100029d8:	02603025 	or	a2,s3,zero
100029dc:	27a50010 	addiu	a1,sp,16
100029e0:	02a02025 	or	a0,s5,zero
100029e4:	02e2b023 	subu	s6,s7,v0
100029e8:	0c000e18 	jal	10003860 <itoa>
100029ec:	00000000 	sll	zero,zero,0x0
100029f0:	00402025 	or	a0,v0,zero
100029f4:	0c000de4 	jal	10003790 <strlen>
100029f8:	00000000 	sll	zero,zero,0x0
100029fc:	0057102a 	slt	v0,v0,s7
10002a00:	1040008d 	beqz	v0,10002c38 <printFmtNum+0x2f0>
10002a04:	00000000 	sll	zero,zero,0x0
10002a08:	02e01025 	or	v0,s7,zero
10002a0c:	24030023 	addiu	v1,zero,35
10002a10:	02228823 	subu	s1,s1,v0
10002a14:	12430081 	beq	s2,v1,10002c1c <printFmtNum+0x2d4>
10002a18:	00000000 	sll	zero,zero,0x0
10002a1c:	00001025 	or	v0,zero,zero
10002a20:	02228823 	subu	s1,s1,v0
10002a24:	2402002d 	addiu	v0,zero,45
10002a28:	1242004b 	beq	s2,v0,10002b58 <printFmtNum+0x210>
10002a2c:	00000000 	sll	zero,zero,0x0
10002a30:	1a2000f7 	blez	s1,10002e10 <printFmtNum+0x4c8>
10002a34:	00000000 	sll	zero,zero,0x0
10002a38:	02208025 	or	s0,s1,zero
10002a3c:	241e0030 	addiu	s8,zero,48
10002a40:	24040020 	addiu	a0,zero,32
10002a44:	165e0003 	bne	s2,s8,10002a54 <printFmtNum+0x10c>
10002a48:	00000000 	sll	zero,zero,0x0
10002a4c:	12e00033 	beqz	s7,10002b1c <printFmtNum+0x1d4>
10002a50:	00000000 	sll	zero,zero,0x0
10002a54:	0c001b04 	jal	10006c10 <_putc>
10002a58:	00000000 	sll	zero,zero,0x0
10002a5c:	2610ffff 	addiu	s0,s0,-1
10002a60:	1600fff7 	bnez	s0,10002a40 <printFmtNum+0xf8>
10002a64:	00000000 	sll	zero,zero,0x0
10002a68:	2402002b 	addiu	v0,zero,43
10002a6c:	12420030 	beq	s2,v0,10002b30 <printFmtNum+0x1e8>
10002a70:	00000000 	sll	zero,zero,0x0
10002a74:	24020020 	addiu	v0,zero,32
10002a78:	1642007a 	bne	s2,v0,10002c64 <printFmtNum+0x31c>
10002a7c:	00000000 	sll	zero,zero,0x0
10002a80:	24020001 	addiu	v0,zero,1
10002a84:	128200b2 	beq	s4,v0,10002d50 <printFmtNum+0x408>
10002a88:	00000000 	sll	zero,zero,0x0
10002a8c:	1ac0000f 	blez	s6,10002acc <printFmtNum+0x184>
10002a90:	00000000 	sll	zero,zero,0x0
10002a94:	02c08025 	or	s0,s6,zero
10002a98:	2610ffff 	addiu	s0,s0,-1
10002a9c:	24040030 	addiu	a0,zero,48
10002aa0:	0c001b04 	jal	10006c10 <_putc>
10002aa4:	00000000 	sll	zero,zero,0x0
10002aa8:	1600fffb 	bnez	s0,10002a98 <printFmtNum+0x150>
10002aac:	00000000 	sll	zero,zero,0x0
10002ab0:	02d18821 	addu	s1,s6,s1
10002ab4:	24020001 	addiu	v0,zero,1
10002ab8:	16820004 	bne	s4,v0,10002acc <printFmtNum+0x184>
10002abc:	00000000 	sll	zero,zero,0x0
10002ac0:	2402000a 	addiu	v0,zero,10
10002ac4:	126200ad 	beq	s3,v0,10002d7c <printFmtNum+0x434>
10002ac8:	00000000 	sll	zero,zero,0x0
10002acc:	02803025 	or	a2,s4,zero
10002ad0:	02602825 	or	a1,s3,zero
10002ad4:	02a02025 	or	a0,s5,zero
10002ad8:	0c000a01 	jal	10002804 <printNum>
10002adc:	00000000 	sll	zero,zero,0x0
10002ae0:	0051b021 	addu	s6,v0,s1
10002ae4:	8fbf009c 	lw	ra,156(sp)
10002ae8:	02c01025 	or	v0,s6,zero
10002aec:	8fbe0098 	lw	s8,152(sp)
10002af0:	8fb70094 	lw	s7,148(sp)
10002af4:	8fb60090 	lw	s6,144(sp)
10002af8:	8fb5008c 	lw	s5,140(sp)
10002afc:	8fb40088 	lw	s4,136(sp)
10002b00:	8fb30084 	lw	s3,132(sp)
10002b04:	8fb20080 	lw	s2,128(sp)
10002b08:	8fb1007c 	lw	s1,124(sp)
10002b0c:	8fb00078 	lw	s0,120(sp)
10002b10:	27bd00a0 	addiu	sp,sp,160
10002b14:	03e00008 	jr	ra
10002b18:	00000000 	sll	zero,zero,0x0
10002b1c:	24040030 	addiu	a0,zero,48
10002b20:	0c001b04 	jal	10006c10 <_putc>
10002b24:	00000000 	sll	zero,zero,0x0
10002b28:	1000ffcc 	beqz	zero,10002a5c <printFmtNum+0x114>
10002b2c:	00000000 	sll	zero,zero,0x0
10002b30:	24020001 	addiu	v0,zero,1
10002b34:	1682ffd5 	bne	s4,v0,10002a8c <printFmtNum+0x144>
10002b38:	00000000 	sll	zero,zero,0x0
10002b3c:	2402000a 	addiu	v0,zero,10
10002b40:	126200ef 	beq	s3,v0,10002f00 <printFmtNum+0x5b8>
10002b44:	00000000 	sll	zero,zero,0x0
10002b48:	06a10051 	bgez	s5,10002c90 <printFmtNum+0x348>
10002b4c:	00000000 	sll	zero,zero,0x0
10002b50:	1000ffce 	beqz	zero,10002a8c <printFmtNum+0x144>
10002b54:	00000000 	sll	zero,zero,0x0
10002b58:	06a000a5 	bltz	s5,10002df0 <printFmtNum+0x4a8>
10002b5c:	00000000 	sll	zero,zero,0x0
10002b60:	1ac000c0 	blez	s6,10002e64 <printFmtNum+0x51c>
10002b64:	00000000 	sll	zero,zero,0x0
10002b68:	00009025 	or	s2,zero,zero
10002b6c:	02c08025 	or	s0,s6,zero
10002b70:	2610ffff 	addiu	s0,s0,-1
10002b74:	24040030 	addiu	a0,zero,48
10002b78:	0c001b04 	jal	10006c10 <_putc>
10002b7c:	00000000 	sll	zero,zero,0x0
10002b80:	1600fffb 	bnez	s0,10002b70 <printFmtNum+0x228>
10002b84:	00000000 	sll	zero,zero,0x0
10002b88:	02d2b021 	addu	s6,s6,s2
10002b8c:	24020001 	addiu	v0,zero,1
10002b90:	16820004 	bne	s4,v0,10002ba4 <printFmtNum+0x25c>
10002b94:	00000000 	sll	zero,zero,0x0
10002b98:	2402000a 	addiu	v0,zero,10
10002b9c:	126200a6 	beq	s3,v0,10002e38 <printFmtNum+0x4f0>
10002ba0:	00000000 	sll	zero,zero,0x0
10002ba4:	02803025 	or	a2,s4,zero
10002ba8:	02602825 	or	a1,s3,zero
10002bac:	02a02025 	or	a0,s5,zero
10002bb0:	0c000a01 	jal	10002804 <printNum>
10002bb4:	00000000 	sll	zero,zero,0x0
10002bb8:	0056b021 	addu	s6,v0,s6
10002bbc:	1a20ffc9 	blez	s1,10002ae4 <printFmtNum+0x19c>
10002bc0:	00000000 	sll	zero,zero,0x0
10002bc4:	02208025 	or	s0,s1,zero
10002bc8:	2610ffff 	addiu	s0,s0,-1
10002bcc:	24040020 	addiu	a0,zero,32
10002bd0:	0c001b04 	jal	10006c10 <_putc>
10002bd4:	00000000 	sll	zero,zero,0x0
10002bd8:	1600fffb 	bnez	s0,10002bc8 <printFmtNum+0x280>
10002bdc:	00000000 	sll	zero,zero,0x0
10002be0:	8fbf009c 	lw	ra,156(sp)
10002be4:	0236b021 	addu	s6,s1,s6
10002be8:	02c01025 	or	v0,s6,zero
10002bec:	8fbe0098 	lw	s8,152(sp)
10002bf0:	8fb70094 	lw	s7,148(sp)
10002bf4:	8fb60090 	lw	s6,144(sp)
10002bf8:	8fb5008c 	lw	s5,140(sp)
10002bfc:	8fb40088 	lw	s4,136(sp)
10002c00:	8fb30084 	lw	s3,132(sp)
10002c04:	8fb20080 	lw	s2,128(sp)
10002c08:	8fb1007c 	lw	s1,124(sp)
10002c0c:	8fb00078 	lw	s0,120(sp)
10002c10:	27bd00a0 	addiu	sp,sp,160
10002c14:	03e00008 	jr	ra
10002c18:	00000000 	sll	zero,zero,0x0
10002c1c:	24020010 	addiu	v0,zero,16
10002c20:	1262001f 	beq	s3,v0,10002ca0 <printFmtNum+0x358>
10002c24:	00000000 	sll	zero,zero,0x0
10002c28:	3a620008 	xori	v0,s3,0x8
10002c2c:	2c420001 	sltiu	v0,v0,1
10002c30:	1000ff7b 	beqz	zero,10002a20 <printFmtNum+0xd8>
10002c34:	00000000 	sll	zero,zero,0x0
10002c38:	02a02025 	or	a0,s5,zero
10002c3c:	02803825 	or	a3,s4,zero
10002c40:	02603025 	or	a2,s3,zero
10002c44:	27a50010 	addiu	a1,sp,16
10002c48:	0c000e18 	jal	10003860 <itoa>
10002c4c:	00000000 	sll	zero,zero,0x0
10002c50:	00402025 	or	a0,v0,zero
10002c54:	0c000de4 	jal	10003790 <strlen>
10002c58:	00000000 	sll	zero,zero,0x0
10002c5c:	1000ff6b 	beqz	zero,10002a0c <printFmtNum+0xc4>
10002c60:	00000000 	sll	zero,zero,0x0
10002c64:	24020023 	addiu	v0,zero,35
10002c68:	16420007 	bne	s2,v0,10002c88 <printFmtNum+0x340>
10002c6c:	00000000 	sll	zero,zero,0x0
10002c70:	24020010 	addiu	v0,zero,16
10002c74:	1262004c 	beq	s3,v0,10002da8 <printFmtNum+0x460>
10002c78:	00000000 	sll	zero,zero,0x0
10002c7c:	24020008 	addiu	v0,zero,8
10002c80:	12620066 	beq	s3,v0,10002e1c <printFmtNum+0x4d4>
10002c84:	00000000 	sll	zero,zero,0x0
10002c88:	06a00092 	bltz	s5,10002ed4 <printFmtNum+0x58c>
10002c8c:	00000000 	sll	zero,zero,0x0
10002c90:	1ec0ff80 	bgtz	s6,10002a94 <printFmtNum+0x14c>
10002c94:	00000000 	sll	zero,zero,0x0
10002c98:	1000ff86 	beqz	zero,10002ab4 <printFmtNum+0x16c>
10002c9c:	00000000 	sll	zero,zero,0x0
10002ca0:	3a620008 	xori	v0,s3,0x8
10002ca4:	2631fffe 	addiu	s1,s1,-2
10002ca8:	2c420001 	sltiu	v0,v0,1
10002cac:	1000ff5c 	beqz	zero,10002a20 <printFmtNum+0xd8>
10002cb0:	00000000 	sll	zero,zero,0x0
10002cb4:	02a02025 	or	a0,s5,zero
10002cb8:	0c000e01 	jal	10003804 <abs>
10002cbc:	00000000 	sll	zero,zero,0x0
10002cc0:	00402025 	or	a0,v0,zero
10002cc4:	27a50010 	addiu	a1,sp,16
10002cc8:	24070001 	addiu	a3,zero,1
10002ccc:	2406000a 	addiu	a2,zero,10
10002cd0:	0c000e18 	jal	10003860 <itoa>
10002cd4:	00000000 	sll	zero,zero,0x0
10002cd8:	00402025 	or	a0,v0,zero
10002cdc:	0c000de4 	jal	10003790 <strlen>
10002ce0:	00000000 	sll	zero,zero,0x0
10002ce4:	02a02025 	or	a0,s5,zero
10002ce8:	02e2b023 	subu	s6,s7,v0
10002cec:	0c000e01 	jal	10003804 <abs>
10002cf0:	00000000 	sll	zero,zero,0x0
10002cf4:	00402025 	or	a0,v0,zero
10002cf8:	24070001 	addiu	a3,zero,1
10002cfc:	2406000a 	addiu	a2,zero,10
10002d00:	27a50010 	addiu	a1,sp,16
10002d04:	0c000e18 	jal	10003860 <itoa>
10002d08:	00000000 	sll	zero,zero,0x0
10002d0c:	00402025 	or	a0,v0,zero
10002d10:	0c000de4 	jal	10003790 <strlen>
10002d14:	00000000 	sll	zero,zero,0x0
10002d18:	0057102a 	slt	v0,v0,s7
10002d1c:	1040005f 	beqz	v0,10002e9c <printFmtNum+0x554>
10002d20:	00000000 	sll	zero,zero,0x0
10002d24:	02e01025 	or	v0,s7,zero
10002d28:	24030020 	addiu	v1,zero,32
10002d2c:	02228823 	subu	s1,s1,v0
10002d30:	1243002c 	beq	s2,v1,10002de4 <printFmtNum+0x49c>
10002d34:	00000000 	sll	zero,zero,0x0
10002d38:	2402002b 	addiu	v0,zero,43
10002d3c:	12420029 	beq	s2,v0,10002de4 <printFmtNum+0x49c>
10002d40:	00000000 	sll	zero,zero,0x0
10002d44:	001517c2 	srl	v0,s5,0x1f
10002d48:	1000ff35 	beqz	zero,10002a20 <printFmtNum+0xd8>
10002d4c:	00000000 	sll	zero,zero,0x0
10002d50:	2402000a 	addiu	v0,zero,10
10002d54:	1662ff7c 	bne	s3,v0,10002b48 <printFmtNum+0x200>
10002d58:	00000000 	sll	zero,zero,0x0
10002d5c:	1aa00063 	blez	s5,10002eec <printFmtNum+0x5a4>
10002d60:	00000000 	sll	zero,zero,0x0
10002d64:	24040020 	addiu	a0,zero,32
10002d68:	0c001b04 	jal	10006c10 <_putc>
10002d6c:	00000000 	sll	zero,zero,0x0
10002d70:	26310001 	addiu	s1,s1,1
10002d74:	1ec0ff47 	bgtz	s6,10002a94 <printFmtNum+0x14c>
10002d78:	00000000 	sll	zero,zero,0x0
10002d7c:	02a02025 	or	a0,s5,zero
10002d80:	0c000e01 	jal	10003804 <abs>
10002d84:	00000000 	sll	zero,zero,0x0
10002d88:	00402025 	or	a0,v0,zero
10002d8c:	24060001 	addiu	a2,zero,1
10002d90:	2405000a 	addiu	a1,zero,10
10002d94:	0c000a01 	jal	10002804 <printNum>
10002d98:	00000000 	sll	zero,zero,0x0
10002d9c:	0051b021 	addu	s6,v0,s1
10002da0:	1000ff50 	beqz	zero,10002ae4 <printFmtNum+0x19c>
10002da4:	00000000 	sll	zero,zero,0x0
10002da8:	3c101000 	lui	s0,0x1000
10002dac:	3c121000 	lui	s2,0x1000
10002db0:	261074fd 	addiu	s0,s0,29949
10002db4:	24040030 	addiu	a0,zero,48
10002db8:	265274fc 	addiu	s2,s2,29948
10002dbc:	0c001b04 	jal	10006c10 <_putc>
10002dc0:	00000000 	sll	zero,zero,0x0
10002dc4:	02121023 	subu	v0,s0,s2
10002dc8:	26100001 	addiu	s0,s0,1
10002dcc:	8204ffff 	lb	a0,-1(s0)
10002dd0:	1480fffa 	bnez	a0,10002dbc <printFmtNum+0x474>
10002dd4:	00000000 	sll	zero,zero,0x0
10002dd8:	02228821 	addu	s1,s1,v0
10002ddc:	1000ffac 	beqz	zero,10002c90 <printFmtNum+0x348>
10002de0:	00000000 	sll	zero,zero,0x0
10002de4:	02801025 	or	v0,s4,zero
10002de8:	1000ff0d 	beqz	zero,10002a20 <printFmtNum+0xd8>
10002dec:	00000000 	sll	zero,zero,0x0
10002df0:	24020001 	addiu	v0,zero,1
10002df4:	1282001e 	beq	s4,v0,10002e70 <printFmtNum+0x528>
10002df8:	00000000 	sll	zero,zero,0x0
10002dfc:	1ec0ff5a 	bgtz	s6,10002b68 <printFmtNum+0x220>
10002e00:	00000000 	sll	zero,zero,0x0
10002e04:	0000b025 	or	s6,zero,zero
10002e08:	1000ff66 	beqz	zero,10002ba4 <printFmtNum+0x25c>
10002e0c:	00000000 	sll	zero,zero,0x0
10002e10:	00008825 	or	s1,zero,zero
10002e14:	1000ff14 	beqz	zero,10002a68 <printFmtNum+0x120>
10002e18:	00000000 	sll	zero,zero,0x0
10002e1c:	24040030 	addiu	a0,zero,48
10002e20:	0c001b04 	jal	10006c10 <_putc>
10002e24:	00000000 	sll	zero,zero,0x0
10002e28:	26310001 	addiu	s1,s1,1
10002e2c:	1000ff98 	beqz	zero,10002c90 <printFmtNum+0x348>
10002e30:	00000000 	sll	zero,zero,0x0
10002e34:	24160001 	addiu	s6,zero,1
10002e38:	02a02025 	or	a0,s5,zero
10002e3c:	0c000e01 	jal	10003804 <abs>
10002e40:	00000000 	sll	zero,zero,0x0
10002e44:	00402025 	or	a0,v0,zero
10002e48:	24060001 	addiu	a2,zero,1
10002e4c:	2405000a 	addiu	a1,zero,10
10002e50:	0c000a01 	jal	10002804 <printNum>
10002e54:	00000000 	sll	zero,zero,0x0
10002e58:	0056b021 	addu	s6,v0,s6
10002e5c:	1000ff57 	beqz	zero,10002bbc <printFmtNum+0x274>
10002e60:	00000000 	sll	zero,zero,0x0
10002e64:	0000b025 	or	s6,zero,zero
10002e68:	1000ff48 	beqz	zero,10002b8c <printFmtNum+0x244>
10002e6c:	00000000 	sll	zero,zero,0x0
10002e70:	2402000a 	addiu	v0,zero,10
10002e74:	1662ffe1 	bne	s3,v0,10002dfc <printFmtNum+0x4b4>
10002e78:	00000000 	sll	zero,zero,0x0
10002e7c:	2404002d 	addiu	a0,zero,45
10002e80:	0c001b04 	jal	10006c10 <_putc>
10002e84:	00000000 	sll	zero,zero,0x0
10002e88:	1ac0ffea 	blez	s6,10002e34 <printFmtNum+0x4ec>
10002e8c:	00000000 	sll	zero,zero,0x0
10002e90:	24120001 	addiu	s2,zero,1
10002e94:	1000ff35 	beqz	zero,10002b6c <printFmtNum+0x224>
10002e98:	00000000 	sll	zero,zero,0x0
10002e9c:	02a02025 	or	a0,s5,zero
10002ea0:	0c000e01 	jal	10003804 <abs>
10002ea4:	00000000 	sll	zero,zero,0x0
10002ea8:	00402025 	or	a0,v0,zero
10002eac:	24070001 	addiu	a3,zero,1
10002eb0:	2406000a 	addiu	a2,zero,10
10002eb4:	27a50010 	addiu	a1,sp,16
10002eb8:	0c000e18 	jal	10003860 <itoa>
10002ebc:	00000000 	sll	zero,zero,0x0
10002ec0:	00402025 	or	a0,v0,zero
10002ec4:	0c000de4 	jal	10003790 <strlen>
10002ec8:	00000000 	sll	zero,zero,0x0
10002ecc:	1000ff96 	beqz	zero,10002d28 <printFmtNum+0x3e0>
10002ed0:	00000000 	sll	zero,zero,0x0
10002ed4:	24020001 	addiu	v0,zero,1
10002ed8:	1682feec 	bne	s4,v0,10002a8c <printFmtNum+0x144>
10002edc:	00000000 	sll	zero,zero,0x0
10002ee0:	2402000a 	addiu	v0,zero,10
10002ee4:	1662fee9 	bne	s3,v0,10002a8c <printFmtNum+0x144>
10002ee8:	00000000 	sll	zero,zero,0x0
10002eec:	2404002d 	addiu	a0,zero,45
10002ef0:	0c001b04 	jal	10006c10 <_putc>
10002ef4:	00000000 	sll	zero,zero,0x0
10002ef8:	1000ff9d 	beqz	zero,10002d70 <printFmtNum+0x428>
10002efc:	00000000 	sll	zero,zero,0x0
10002f00:	1aa0fffa 	blez	s5,10002eec <printFmtNum+0x5a4>
10002f04:	00000000 	sll	zero,zero,0x0
10002f08:	2404002b 	addiu	a0,zero,43
10002f0c:	0c001b04 	jal	10006c10 <_putc>
10002f10:	00000000 	sll	zero,zero,0x0
10002f14:	1000ff96 	beqz	zero,10002d70 <printFmtNum+0x428>
10002f18:	00000000 	sll	zero,zero,0x0

10002f1c <printFmt>:
10002f1c:	27bdffd0 	addiu	sp,sp,-48
10002f20:	83a20040 	lb	v0,64(sp)
10002f24:	24080063 	addiu	t0,zero,99
10002f28:	afb20024 	sw	s2,36(sp)
10002f2c:	afb10020 	sw	s1,32(sp)
10002f30:	afbf002c 	sw	ra,44(sp)
10002f34:	afb30028 	sw	s3,40(sp)
10002f38:	afb0001c 	sw	s0,28(sp)
10002f3c:	00801825 	or	v1,a0,zero
10002f40:	00a08825 	or	s1,a1,zero
10002f44:	00c09025 	or	s2,a2,zero
10002f48:	10480034 	beq	v0,t0,1000301c <printFmt+0x100>
10002f4c:	00000000 	sll	zero,zero,0x0
10002f50:	24080073 	addiu	t0,zero,115
10002f54:	1048006a 	beq	v0,t0,10003100 <printFmt+0x1e4>
10002f58:	00000000 	sll	zero,zero,0x0
10002f5c:	24080064 	addiu	t0,zero,100
10002f60:	00e04825 	or	t1,a3,zero
10002f64:	10480019 	beq	v0,t0,10002fcc <printFmt+0xb0>
10002f68:	00000000 	sll	zero,zero,0x0
10002f6c:	24080069 	addiu	t0,zero,105
10002f70:	10480016 	beq	v0,t0,10002fcc <printFmt+0xb0>
10002f74:	00000000 	sll	zero,zero,0x0
10002f78:	2403ffdf 	addiu	v1,zero,-33
10002f7c:	00431824 	and	v1,v0,v1
10002f80:	24080058 	addiu	t0,zero,88
10002f84:	1068004f 	beq	v1,t0,100030c4 <printFmt+0x1a8>
10002f88:	00000000 	sll	zero,zero,0x0
10002f8c:	2403006f 	addiu	v1,zero,111
10002f90:	104300af 	beq	v0,v1,10003250 <printFmt+0x334>
10002f94:	00000000 	sll	zero,zero,0x0
10002f98:	24030075 	addiu	v1,zero,117
10002f9c:	104300a4 	beq	v0,v1,10003230 <printFmt+0x314>
10002fa0:	00000000 	sll	zero,zero,0x0
10002fa4:	8fbf002c 	lw	ra,44(sp)
10002fa8:	00009825 	or	s3,zero,zero
10002fac:	02601025 	or	v0,s3,zero
10002fb0:	8fb20024 	lw	s2,36(sp)
10002fb4:	8fb30028 	lw	s3,40(sp)
10002fb8:	8fb10020 	lw	s1,32(sp)
10002fbc:	8fb0001c 	lw	s0,28(sp)
10002fc0:	27bd0030 	addiu	sp,sp,48
10002fc4:	03e00008 	jr	ra
10002fc8:	00000000 	sll	zero,zero,0x0
10002fcc:	24020001 	addiu	v0,zero,1
10002fd0:	afa20014 	sw	v0,20(sp)
10002fd4:	2402000a 	addiu	v0,zero,10
10002fd8:	afa20010 	sw	v0,16(sp)
10002fdc:	01203825 	or	a3,t1,zero
10002fe0:	02403025 	or	a2,s2,zero
10002fe4:	02202825 	or	a1,s1,zero
10002fe8:	00602025 	or	a0,v1,zero
10002fec:	0c000a52 	jal	10002948 <printFmtNum>
10002ff0:	00000000 	sll	zero,zero,0x0
10002ff4:	00409825 	or	s3,v0,zero
10002ff8:	8fbf002c 	lw	ra,44(sp)
10002ffc:	02601025 	or	v0,s3,zero
10003000:	8fb20024 	lw	s2,36(sp)
10003004:	8fb30028 	lw	s3,40(sp)
10003008:	8fb10020 	lw	s1,32(sp)
1000300c:	8fb0001c 	lw	s0,28(sp)
10003010:	27bd0030 	addiu	sp,sp,48
10003014:	03e00008 	jr	ra
10003018:	00000000 	sll	zero,zero,0x0
1000301c:	8c820000 	lw	v0,0(a0)
10003020:	2404002d 	addiu	a0,zero,45
10003024:	24450004 	addiu	a1,v0,4
10003028:	ac650000 	sw	a1,0(v1)
1000302c:	80530000 	lb	s3,0(v0)
10003030:	24d0ffff 	addiu	s0,a2,-1
10003034:	12240057 	beq	s1,a0,10003194 <printFmt+0x278>
10003038:	00000000 	sll	zero,zero,0x0
1000303c:	24020030 	addiu	v0,zero,48
10003040:	12220016 	beq	s1,v0,1000309c <printFmt+0x180>
10003044:	00000000 	sll	zero,zero,0x0
10003048:	1a000076 	blez	s0,10003224 <printFmt+0x308>
1000304c:	00000000 	sll	zero,zero,0x0
10003050:	2610ffff 	addiu	s0,s0,-1
10003054:	24040020 	addiu	a0,zero,32
10003058:	0c001b04 	jal	10006c10 <_putc>
1000305c:	00000000 	sll	zero,zero,0x0
10003060:	1600fffb 	bnez	s0,10003050 <printFmt+0x134>
10003064:	00000000 	sll	zero,zero,0x0
10003068:	02602025 	or	a0,s3,zero
1000306c:	0c001b04 	jal	10006c10 <_putc>
10003070:	00000000 	sll	zero,zero,0x0
10003074:	02409825 	or	s3,s2,zero
10003078:	8fbf002c 	lw	ra,44(sp)
1000307c:	02601025 	or	v0,s3,zero
10003080:	8fb20024 	lw	s2,36(sp)
10003084:	8fb30028 	lw	s3,40(sp)
10003088:	8fb10020 	lw	s1,32(sp)
1000308c:	8fb0001c 	lw	s0,28(sp)
10003090:	27bd0030 	addiu	sp,sp,48
10003094:	03e00008 	jr	ra
10003098:	00000000 	sll	zero,zero,0x0
1000309c:	1a000061 	blez	s0,10003224 <printFmt+0x308>
100030a0:	00000000 	sll	zero,zero,0x0
100030a4:	2610ffff 	addiu	s0,s0,-1
100030a8:	24040030 	addiu	a0,zero,48
100030ac:	0c001b04 	jal	10006c10 <_putc>
100030b0:	00000000 	sll	zero,zero,0x0
100030b4:	1600fffb 	bnez	s0,100030a4 <printFmt+0x188>
100030b8:	00000000 	sll	zero,zero,0x0
100030bc:	1000ffea 	beqz	zero,10003068 <printFmt+0x14c>
100030c0:	00000000 	sll	zero,zero,0x0
100030c4:	24020010 	addiu	v0,zero,16
100030c8:	afa00014 	sw	zero,20(sp)
100030cc:	afa20010 	sw	v0,16(sp)
100030d0:	0c000a52 	jal	10002948 <printFmtNum>
100030d4:	00000000 	sll	zero,zero,0x0
100030d8:	8fbf002c 	lw	ra,44(sp)
100030dc:	00409825 	or	s3,v0,zero
100030e0:	02601025 	or	v0,s3,zero
100030e4:	8fb20024 	lw	s2,36(sp)
100030e8:	8fb30028 	lw	s3,40(sp)
100030ec:	8fb10020 	lw	s1,32(sp)
100030f0:	8fb0001c 	lw	s0,28(sp)
100030f4:	27bd0030 	addiu	sp,sp,48
100030f8:	03e00008 	jr	ra
100030fc:	00000000 	sll	zero,zero,0x0
10003100:	8c820000 	lw	v0,0(a0)
10003104:	24440004 	addiu	a0,v0,4
10003108:	ac640000 	sw	a0,0(v1)
1000310c:	8c500000 	lw	s0,0(v0)
10003110:	02002025 	or	a0,s0,zero
10003114:	0c000de4 	jal	10003790 <strlen>
10003118:	00000000 	sll	zero,zero,0x0
1000311c:	00409825 	or	s3,v0,zero
10003120:	2402002d 	addiu	v0,zero,45
10003124:	02539023 	subu	s2,s2,s3
10003128:	12220028 	beq	s1,v0,100031cc <printFmt+0x2b0>
1000312c:	00000000 	sll	zero,zero,0x0
10003130:	24020030 	addiu	v0,zero,48
10003134:	1222004e 	beq	s1,v0,10003270 <printFmt+0x354>
10003138:	00000000 	sll	zero,zero,0x0
1000313c:	1a400009 	blez	s2,10003164 <printFmt+0x248>
10003140:	00000000 	sll	zero,zero,0x0
10003144:	02408825 	or	s1,s2,zero
10003148:	2631ffff 	addiu	s1,s1,-1
1000314c:	24040020 	addiu	a0,zero,32
10003150:	0c001b04 	jal	10006c10 <_putc>
10003154:	00000000 	sll	zero,zero,0x0
10003158:	1620fffb 	bnez	s1,10003148 <printFmt+0x22c>
1000315c:	00000000 	sll	zero,zero,0x0
10003160:	02539821 	addu	s3,s2,s3
10003164:	82040000 	lb	a0,0(s0)
10003168:	1080ffa3 	beqz	a0,10002ff8 <printFmt+0xdc>
1000316c:	00000000 	sll	zero,zero,0x0
10003170:	26100001 	addiu	s0,s0,1
10003174:	26100001 	addiu	s0,s0,1
10003178:	0c001b04 	jal	10006c10 <_putc>
1000317c:	00000000 	sll	zero,zero,0x0
10003180:	8204ffff 	lb	a0,-1(s0)
10003184:	1480fffb 	bnez	a0,10003174 <printFmt+0x258>
10003188:	00000000 	sll	zero,zero,0x0
1000318c:	1000ff9a 	beqz	zero,10002ff8 <printFmt+0xdc>
10003190:	00000000 	sll	zero,zero,0x0
10003194:	02602025 	or	a0,s3,zero
10003198:	0c001b04 	jal	10006c10 <_putc>
1000319c:	00000000 	sll	zero,zero,0x0
100031a0:	1a000049 	blez	s0,100032c8 <printFmt+0x3ac>
100031a4:	00000000 	sll	zero,zero,0x0
100031a8:	2610ffff 	addiu	s0,s0,-1
100031ac:	24040020 	addiu	a0,zero,32
100031b0:	0c001b04 	jal	10006c10 <_putc>
100031b4:	00000000 	sll	zero,zero,0x0
100031b8:	1600fffb 	bnez	s0,100031a8 <printFmt+0x28c>
100031bc:	00000000 	sll	zero,zero,0x0
100031c0:	02409825 	or	s3,s2,zero
100031c4:	1000ffac 	beqz	zero,10003078 <printFmt+0x15c>
100031c8:	00000000 	sll	zero,zero,0x0
100031cc:	82040000 	lb	a0,0(s0)
100031d0:	10800008 	beqz	a0,100031f4 <printFmt+0x2d8>
100031d4:	00000000 	sll	zero,zero,0x0
100031d8:	26100001 	addiu	s0,s0,1
100031dc:	26100001 	addiu	s0,s0,1
100031e0:	0c001b04 	jal	10006c10 <_putc>
100031e4:	00000000 	sll	zero,zero,0x0
100031e8:	8204ffff 	lb	a0,-1(s0)
100031ec:	1480fffb 	bnez	a0,100031dc <printFmt+0x2c0>
100031f0:	00000000 	sll	zero,zero,0x0
100031f4:	1a40ff80 	blez	s2,10002ff8 <printFmt+0xdc>
100031f8:	00000000 	sll	zero,zero,0x0
100031fc:	02408025 	or	s0,s2,zero
10003200:	2610ffff 	addiu	s0,s0,-1
10003204:	24040020 	addiu	a0,zero,32
10003208:	0c001b04 	jal	10006c10 <_putc>
1000320c:	00000000 	sll	zero,zero,0x0
10003210:	1600fffb 	bnez	s0,10003200 <printFmt+0x2e4>
10003214:	00000000 	sll	zero,zero,0x0
10003218:	02539821 	addu	s3,s2,s3
1000321c:	1000ff76 	beqz	zero,10002ff8 <printFmt+0xdc>
10003220:	00000000 	sll	zero,zero,0x0
10003224:	24120001 	addiu	s2,zero,1
10003228:	1000ff8f 	beqz	zero,10003068 <printFmt+0x14c>
1000322c:	00000000 	sll	zero,zero,0x0
10003230:	2402000a 	addiu	v0,zero,10
10003234:	afa00014 	sw	zero,20(sp)
10003238:	afa20010 	sw	v0,16(sp)
1000323c:	0c000a52 	jal	10002948 <printFmtNum>
10003240:	00000000 	sll	zero,zero,0x0
10003244:	00409825 	or	s3,v0,zero
10003248:	1000ff6b 	beqz	zero,10002ff8 <printFmt+0xdc>
1000324c:	00000000 	sll	zero,zero,0x0
10003250:	24020008 	addiu	v0,zero,8
10003254:	afa00014 	sw	zero,20(sp)
10003258:	afa20010 	sw	v0,16(sp)
1000325c:	0c000a52 	jal	10002948 <printFmtNum>
10003260:	00000000 	sll	zero,zero,0x0
10003264:	00409825 	or	s3,v0,zero
10003268:	1000ff63 	beqz	zero,10002ff8 <printFmt+0xdc>
1000326c:	00000000 	sll	zero,zero,0x0
10003270:	1a400009 	blez	s2,10003298 <printFmt+0x37c>
10003274:	00000000 	sll	zero,zero,0x0
10003278:	02408825 	or	s1,s2,zero
1000327c:	2631ffff 	addiu	s1,s1,-1
10003280:	24040030 	addiu	a0,zero,48
10003284:	0c001b04 	jal	10006c10 <_putc>
10003288:	00000000 	sll	zero,zero,0x0
1000328c:	1620fffb 	bnez	s1,1000327c <printFmt+0x360>
10003290:	00000000 	sll	zero,zero,0x0
10003294:	02539821 	addu	s3,s2,s3
10003298:	82040000 	lb	a0,0(s0)
1000329c:	1080ff56 	beqz	a0,10002ff8 <printFmt+0xdc>
100032a0:	00000000 	sll	zero,zero,0x0
100032a4:	26100001 	addiu	s0,s0,1
100032a8:	26100001 	addiu	s0,s0,1
100032ac:	0c001b04 	jal	10006c10 <_putc>
100032b0:	00000000 	sll	zero,zero,0x0
100032b4:	8204ffff 	lb	a0,-1(s0)
100032b8:	1480fffb 	bnez	a0,100032a8 <printFmt+0x38c>
100032bc:	00000000 	sll	zero,zero,0x0
100032c0:	1000ff4d 	beqz	zero,10002ff8 <printFmt+0xdc>
100032c4:	00000000 	sll	zero,zero,0x0
100032c8:	24130001 	addiu	s3,zero,1
100032cc:	1000ff4a 	beqz	zero,10002ff8 <printFmt+0xdc>
100032d0:	00000000 	sll	zero,zero,0x0

100032d4 <printf>:
100032d4:	27bdffc0 	addiu	sp,sp,-64
100032d8:	27a20044 	addiu	v0,sp,68
100032dc:	afb50038 	sw	s5,56(sp)
100032e0:	afb40034 	sw	s4,52(sp)
100032e4:	afb30030 	sw	s3,48(sp)
100032e8:	afb2002c 	sw	s2,44(sp)
100032ec:	afb10028 	sw	s1,40(sp)
100032f0:	afb00024 	sw	s0,36(sp)
100032f4:	afbf003c 	sw	ra,60(sp)
100032f8:	0080a025 	or	s4,a0,zero
100032fc:	afa50044 	sw	a1,68(sp)
10003300:	afa60048 	sw	a2,72(sp)
10003304:	afa7004c 	sw	a3,76(sp)
10003308:	afa20018 	sw	v0,24(sp)
1000330c:	0000a825 	or	s5,zero,zero
10003310:	24100025 	addiu	s0,zero,37
10003314:	24120020 	addiu	s2,zero,32
10003318:	2411002e 	addiu	s1,zero,46
1000331c:	24130069 	addiu	s3,zero,105
10003320:	82840000 	lb	a0,0(s4)
10003324:	1080000a 	beqz	a0,10003350 <printf+0x7c>
10003328:	00000000 	sll	zero,zero,0x0
1000332c:	10900013 	beq	a0,s0,1000337c <printf+0xa8>
10003330:	00000000 	sll	zero,zero,0x0
10003334:	26940001 	addiu	s4,s4,1
10003338:	0c001b04 	jal	10006c10 <_putc>
1000333c:	00000000 	sll	zero,zero,0x0
10003340:	82840000 	lb	a0,0(s4)
10003344:	26b50001 	addiu	s5,s5,1
10003348:	1480fff8 	bnez	a0,1000332c <printf+0x58>
1000334c:	00000000 	sll	zero,zero,0x0
10003350:	8fbf003c 	lw	ra,60(sp)
10003354:	02a01025 	or	v0,s5,zero
10003358:	8fb40034 	lw	s4,52(sp)
1000335c:	8fb50038 	lw	s5,56(sp)
10003360:	8fb30030 	lw	s3,48(sp)
10003364:	8fb2002c 	lw	s2,44(sp)
10003368:	8fb10028 	lw	s1,40(sp)
1000336c:	8fb00024 	lw	s0,36(sp)
10003370:	27bd0040 	addiu	sp,sp,64
10003374:	03e00008 	jr	ra
10003378:	00000000 	sll	zero,zero,0x0
1000337c:	82850001 	lb	a1,1(s4)
10003380:	10b20035 	beq	a1,s2,10003458 <printf+0x184>
10003384:	00000000 	sll	zero,zero,0x0
10003388:	2402002d 	addiu	v0,zero,45
1000338c:	10a20032 	beq	a1,v0,10003458 <printf+0x184>
10003390:	00000000 	sll	zero,zero,0x0
10003394:	2402002b 	addiu	v0,zero,43
10003398:	10a2002f 	beq	a1,v0,10003458 <printf+0x184>
1000339c:	00000000 	sll	zero,zero,0x0
100033a0:	24020023 	addiu	v0,zero,35
100033a4:	10a2002c 	beq	a1,v0,10003458 <printf+0x184>
100033a8:	00000000 	sll	zero,zero,0x0
100033ac:	24020030 	addiu	v0,zero,48
100033b0:	10a20029 	beq	a1,v0,10003458 <printf+0x184>
100033b4:	00000000 	sll	zero,zero,0x0
100033b8:	00a03825 	or	a3,a1,zero
100033bc:	24e4ffd0 	addiu	a0,a3,-48
100033c0:	308300ff 	andi	v1,a0,0xff
100033c4:	2c63000a 	sltiu	v1,v1,10
100033c8:	26880001 	addiu	t0,s4,1
100033cc:	24020001 	addiu	v0,zero,1
100033d0:	00002825 	or	a1,zero,zero
100033d4:	14600028 	bnez	v1,10003478 <printf+0x1a4>
100033d8:	00000000 	sll	zero,zero,0x0
100033dc:	00003025 	or	a2,zero,zero
100033e0:	10f10036 	beq	a3,s1,100034bc <printf+0x1e8>
100033e4:	00000000 	sll	zero,zero,0x0
100033e8:	81030000 	lb	v1,0(t0)
100033ec:	00003825 	or	a3,zero,zero
100033f0:	306200ff 	andi	v0,v1,0xff
100033f4:	2442ff9d 	addiu	v0,v0,-99
100033f8:	2c420002 	sltiu	v0,v0,2
100033fc:	1440004a 	bnez	v0,10003528 <printf+0x254>
10003400:	00000000 	sll	zero,zero,0x0
10003404:	10730048 	beq	v1,s3,10003528 <printf+0x254>
10003408:	00000000 	sll	zero,zero,0x0
1000340c:	2402006f 	addiu	v0,zero,111
10003410:	10620045 	beq	v1,v0,10003528 <printf+0x254>
10003414:	00000000 	sll	zero,zero,0x0
10003418:	24020073 	addiu	v0,zero,115
1000341c:	10620042 	beq	v1,v0,10003528 <printf+0x254>
10003420:	00000000 	sll	zero,zero,0x0
10003424:	24020078 	addiu	v0,zero,120
10003428:	1062003f 	beq	v1,v0,10003528 <printf+0x254>
1000342c:	00000000 	sll	zero,zero,0x0
10003430:	24020058 	addiu	v0,zero,88
10003434:	1062003c 	beq	v1,v0,10003528 <printf+0x254>
10003438:	00000000 	sll	zero,zero,0x0
1000343c:	24020075 	addiu	v0,zero,117
10003440:	10620039 	beq	v1,v0,10003528 <printf+0x254>
10003444:	00000000 	sll	zero,zero,0x0
10003448:	0100a025 	or	s4,t0,zero
1000344c:	00001825 	or	v1,zero,zero
10003450:	10000036 	beqz	zero,1000352c <printf+0x258>
10003454:	00000000 	sll	zero,zero,0x0
10003458:	82870002 	lb	a3,2(s4)
1000345c:	26880002 	addiu	t0,s4,2
10003460:	24e4ffd0 	addiu	a0,a3,-48
10003464:	308300ff 	andi	v1,a0,0xff
10003468:	2c63000a 	sltiu	v1,v1,10
1000346c:	24020002 	addiu	v0,zero,2
10003470:	1060ffda 	beqz	v1,100033dc <printf+0x108>
10003474:	00000000 	sll	zero,zero,0x0
10003478:	24420001 	addiu	v0,v0,1
1000347c:	02821821 	addu	v1,s4,v0
10003480:	00003025 	or	a2,zero,zero
10003484:	00061080 	sll	v0,a2,0x2
10003488:	00463021 	addu	a2,v0,a2
1000348c:	80670000 	lb	a3,0(v1)
10003490:	00063040 	sll	a2,a2,0x1
10003494:	00c43021 	addu	a2,a2,a0
10003498:	24e4ffd0 	addiu	a0,a3,-48
1000349c:	308200ff 	andi	v0,a0,0xff
100034a0:	2c42000a 	sltiu	v0,v0,10
100034a4:	00604025 	or	t0,v1,zero
100034a8:	24630001 	addiu	v1,v1,1
100034ac:	1440fff5 	bnez	v0,10003484 <printf+0x1b0>
100034b0:	00000000 	sll	zero,zero,0x0
100034b4:	14f1ffcc 	bne	a3,s1,100033e8 <printf+0x114>
100034b8:	00000000 	sll	zero,zero,0x0
100034bc:	81030001 	lb	v1,1(t0)
100034c0:	246affd0 	addiu	t2,v1,-48
100034c4:	314200ff 	andi	v0,t2,0xff
100034c8:	2c42000a 	sltiu	v0,v0,10
100034cc:	1040001e 	beqz	v0,10003548 <printf+0x274>
100034d0:	00000000 	sll	zero,zero,0x0
100034d4:	25090002 	addiu	t1,t0,2
100034d8:	00003825 	or	a3,zero,zero
100034dc:	10000002 	beqz	zero,100034e8 <printf+0x214>
100034e0:	00000000 	sll	zero,zero,0x0
100034e4:	246affd0 	addiu	t2,v1,-48
100034e8:	81230000 	lb	v1,0(t1)
100034ec:	00072080 	sll	a0,a3,0x2
100034f0:	306200ff 	andi	v0,v1,0xff
100034f4:	00873821 	addu	a3,a0,a3
100034f8:	2444ffd0 	addiu	a0,v0,-48
100034fc:	00073840 	sll	a3,a3,0x1
10003500:	2c84000a 	sltiu	a0,a0,10
10003504:	01204025 	or	t0,t1,zero
10003508:	00ea3821 	addu	a3,a3,t2
1000350c:	25290001 	addiu	t1,t1,1
10003510:	1480fff4 	bnez	a0,100034e4 <printf+0x210>
10003514:	00000000 	sll	zero,zero,0x0
10003518:	2442ff9d 	addiu	v0,v0,-99
1000351c:	2c420002 	sltiu	v0,v0,2
10003520:	1040ffb8 	beqz	v0,10003404 <printf+0x130>
10003524:	00000000 	sll	zero,zero,0x0
10003528:	25140001 	addiu	s4,t0,1
1000352c:	afa30010 	sw	v1,16(sp)
10003530:	27a40018 	addiu	a0,sp,24
10003534:	0c000bc7 	jal	10002f1c <printFmt>
10003538:	00000000 	sll	zero,zero,0x0
1000353c:	02a2a821 	addu	s5,s5,v0
10003540:	1000ff77 	beqz	zero,10003320 <printf+0x4c>
10003544:	00000000 	sll	zero,zero,0x0
10003548:	306200ff 	andi	v0,v1,0xff
1000354c:	25080001 	addiu	t0,t0,1
10003550:	00003825 	or	a3,zero,zero
10003554:	1000ffa7 	beqz	zero,100033f4 <printf+0x120>
10003558:	00000000 	sll	zero,zero,0x0
1000355c:	00000000 	sll	zero,zero,0x0

10003560 <build_bullet>:
10003560:	3c091033 	lui	t1,0x1033
10003564:	27bdffd0 	addiu	sp,sp,-48
10003568:	2529e094 	addiu	t1,t1,-8044
1000356c:	3c0a51eb 	lui	t2,0x51eb
10003570:	8d280af0 	lw	t0,2800(t1)
10003574:	afa7003c 	sw	a3,60(sp)
10003578:	afbf002c 	sw	ra,44(sp)
1000357c:	afa40030 	sw	a0,48(sp)
10003580:	afa50034 	sw	a1,52(sp)
10003584:	afa60038 	sw	a2,56(sp)
10003588:	24070064 	addiu	a3,zero,100
1000358c:	354a851f 	ori	t2,t2,0x851f
10003590:	10000004 	beqz	zero,100035a4 <build_bullet+0x44>
10003594:	00000000 	sll	zero,zero,0x0
10003598:	00804025 	or	t0,a0,zero
1000359c:	10e0002d 	beqz	a3,10003654 <build_bullet+0xf4>
100035a0:	00000000 	sll	zero,zero,0x0
100035a4:	25060001 	addiu	a2,t0,1
100035a8:	00ca0018 	mult	a2,t2
100035ac:	000810c0 	sll	v0,t0,0x3
100035b0:	00002810 	mfhi	a1
100035b4:	000627c3 	sra	a0,a2,0x1f
100035b8:	00051943 	sra	v1,a1,0x5
100035bc:	00481023 	subu	v0,v0,t0
100035c0:	00642023 	subu	a0,v1,a0
100035c4:	00021080 	sll	v0,v0,0x2
100035c8:	00041840 	sll	v1,a0,0x1
100035cc:	01221021 	addu	v0,t1,v0
100035d0:	00641821 	addu	v1,v1,a0
100035d4:	90450001 	lbu	a1,1(v0)
100035d8:	000318c0 	sll	v1,v1,0x3
100035dc:	00641821 	addu	v1,v1,a0
100035e0:	00052e00 	sll	a1,a1,0x18
100035e4:	00031880 	sll	v1,v1,0x2
100035e8:	00052e03 	sra	a1,a1,0x18
100035ec:	24e7ffff 	addiu	a3,a3,-1
100035f0:	00c32023 	subu	a0,a2,v1
100035f4:	14a0ffe8 	bnez	a1,10003598 <build_bullet+0x38>
100035f8:	00000000 	sll	zero,zero,0x0
100035fc:	24030001 	addiu	v1,zero,1
10003600:	ad240af0 	sw	a0,2800(t1)
10003604:	24040042 	addiu	a0,zero,66
10003608:	a0430001 	sb	v1,1(v0)
1000360c:	a0440000 	sb	a0,0(v0)
10003610:	a0430001 	sb	v1,1(v0)
10003614:	8fa30030 	lw	v1,48(sp)
10003618:	ac430004 	sw	v1,4(v0)
1000361c:	8fa30034 	lw	v1,52(sp)
10003620:	ac430008 	sw	v1,8(v0)
10003624:	8fa30038 	lw	v1,56(sp)
10003628:	ac43000c 	sw	v1,12(v0)
1000362c:	8fa3003c 	lw	v1,60(sp)
10003630:	ac430010 	sw	v1,16(v0)
10003634:	8fa30040 	lw	v1,64(sp)
10003638:	ac430014 	sw	v1,20(v0)
1000363c:	8fa30044 	lw	v1,68(sp)
10003640:	ac430018 	sw	v1,24(v0)
10003644:	8fbf002c 	lw	ra,44(sp)
10003648:	27bd0030 	addiu	sp,sp,48
1000364c:	03e00008 	jr	ra
10003650:	00000000 	sll	zero,zero,0x0
10003654:	3c041000 	lui	a0,0x1000
10003658:	24847500 	addiu	a0,a0,29952
1000365c:	ad280af0 	sw	t0,2800(t1)
10003660:	0c000cb5 	jal	100032d4 <printf>
10003664:	00000000 	sll	zero,zero,0x0
10003668:	8fbf002c 	lw	ra,44(sp)
1000366c:	00001025 	or	v0,zero,zero
10003670:	27bd0030 	addiu	sp,sp,48
10003674:	03e00008 	jr	ra
10003678:	00000000 	sll	zero,zero,0x0

1000367c <bullet_delete>:
1000367c:	a0800001 	sb	zero,1(a0)
10003680:	03e00008 	jr	ra
10003684:	00000000 	sll	zero,zero,0x0

10003688 <bullet_draw>:
10003688:	27bdffd8 	addiu	sp,sp,-40
1000368c:	00801025 	or	v0,a0,zero
10003690:	afbf0024 	sw	ra,36(sp)
10003694:	afb00020 	sw	s0,32(sp)
10003698:	8c840004 	lw	a0,4(a0)
1000369c:	8c450008 	lw	a1,8(v0)
100036a0:	8c460014 	lw	a2,20(v0)
100036a4:	2402001f 	addiu	v0,zero,31
100036a8:	a3a2001c 	sb	v0,28(sp)
100036ac:	2402ff91 	addiu	v0,zero,-111
100036b0:	a3a2001d 	sb	v0,29(sp)
100036b4:	2402fff9 	addiu	v0,zero,-7
100036b8:	a3a2001e 	sb	v0,30(sp)
100036bc:	a3a0001f 	sb	zero,31(sp)
100036c0:	8fa7001c 	lw	a3,28(sp)
100036c4:	0c000908 	jal	10002420 <build_circle>
100036c8:	00000000 	sll	zero,zero,0x0
100036cc:	00408025 	or	s0,v0,zero
100036d0:	00402025 	or	a0,v0,zero
100036d4:	0c00094e 	jal	10002538 <circle_draw>
100036d8:	00000000 	sll	zero,zero,0x0
100036dc:	8fbf0024 	lw	ra,36(sp)
100036e0:	02002025 	or	a0,s0,zero
100036e4:	8fb00020 	lw	s0,32(sp)
100036e8:	27bd0028 	addiu	sp,sp,40
100036ec:	0800094b 	j	1000252c <circle_delete>
100036f0:	00000000 	sll	zero,zero,0x0

100036f4 <bullet_locate>:
100036f4:	8c830014 	lw	v1,20(a0)
100036f8:	8c820004 	lw	v0,4(a0)
100036fc:	00431023 	subu	v0,v0,v1
10003700:	aca20000 	sw	v0,0(a1)
10003704:	8c820008 	lw	v0,8(a0)
10003708:	00032040 	sll	a0,v1,0x1
1000370c:	00431023 	subu	v0,v0,v1
10003710:	aca20004 	sw	v0,4(a1)
10003714:	aca40008 	sw	a0,8(a1)
10003718:	aca4000c 	sw	a0,12(a1)
1000371c:	03e00008 	jr	ra
10003720:	00000000 	sll	zero,zero,0x0

10003724 <bullet_move>:
10003724:	8c820004 	lw	v0,4(a0)
10003728:	00452821 	addu	a1,v0,a1
1000372c:	ac850004 	sw	a1,4(a0)
10003730:	8c820008 	lw	v0,8(a0)
10003734:	00463021 	addu	a2,v0,a2
10003738:	ac860008 	sw	a2,8(a0)
1000373c:	03e00008 	jr	ra
10003740:	00000000 	sll	zero,zero,0x0

10003744 <bullet_automove>:
10003744:	8c83000c 	lw	v1,12(a0)
10003748:	8c820004 	lw	v0,4(a0)
1000374c:	00431021 	addu	v0,v0,v1
10003750:	ac820004 	sw	v0,4(a0)
10003754:	8c830010 	lw	v1,16(a0)
10003758:	8c820008 	lw	v0,8(a0)
1000375c:	00431021 	addu	v0,v0,v1
10003760:	ac820008 	sw	v0,8(a0)
10003764:	03e00008 	jr	ra
10003768:	00000000 	sll	zero,zero,0x0

1000376c <bullet_get_attack>:
1000376c:	8c820018 	lw	v0,24(a0)
10003770:	03e00008 	jr	ra
10003774:	00000000 	sll	zero,zero,0x0

10003778 <bullet_set_attack>:
10003778:	ac850018 	sw	a1,24(a0)
1000377c:	03e00008 	jr	ra
10003780:	00000000 	sll	zero,zero,0x0
	...

10003790 <strlen>:
10003790:	1080000c 	beqz	a0,100037c4 <strlen+0x34>
10003794:	00000000 	sll	zero,zero,0x0
10003798:	80820000 	lb	v0,0(a0)
1000379c:	24830001 	addiu	v1,a0,1
100037a0:	10400008 	beqz	v0,100037c4 <strlen+0x34>
100037a4:	00000000 	sll	zero,zero,0x0
100037a8:	00641023 	subu	v0,v1,a0
100037ac:	24630001 	addiu	v1,v1,1
100037b0:	8065ffff 	lb	a1,-1(v1)
100037b4:	14a0fffc 	bnez	a1,100037a8 <strlen+0x18>
100037b8:	00000000 	sll	zero,zero,0x0
100037bc:	03e00008 	jr	ra
100037c0:	00000000 	sll	zero,zero,0x0
100037c4:	00001025 	or	v0,zero,zero
100037c8:	03e00008 	jr	ra
100037cc:	00000000 	sll	zero,zero,0x0

100037d0 <memset>:
100037d0:	00801025 	or	v0,a0,zero
100037d4:	10c00009 	beqz	a2,100037fc <memset+0x2c>
100037d8:	00000000 	sll	zero,zero,0x0
100037dc:	00052e00 	sll	a1,a1,0x18
100037e0:	00052e03 	sra	a1,a1,0x18
100037e4:	00863021 	addu	a2,a0,a2
100037e8:	00801825 	or	v1,a0,zero
100037ec:	24630001 	addiu	v1,v1,1
100037f0:	a065ffff 	sb	a1,-1(v1)
100037f4:	1466fffd 	bne	v1,a2,100037ec <memset+0x1c>
100037f8:	00000000 	sll	zero,zero,0x0
100037fc:	03e00008 	jr	ra
10003800:	00000000 	sll	zero,zero,0x0

10003804 <abs>:
10003804:	00801025 	or	v0,a0,zero
10003808:	04800003 	bltz	a0,10003818 <abs+0x14>
1000380c:	00000000 	sll	zero,zero,0x0
10003810:	03e00008 	jr	ra
10003814:	00000000 	sll	zero,zero,0x0
10003818:	00041023 	negu	v0,a0
1000381c:	03e00008 	jr	ra
10003820:	00000000 	sll	zero,zero,0x0

10003824 <rand>:
10003824:	3c04100e 	lui	a0,0x100e
10003828:	8c8371a0 	lw	v1,29088(a0)
1000382c:	3c0241c6 	lui	v0,0x41c6
10003830:	24424e6d 	addiu	v0,v0,20077
10003834:	70621802 	mul	v1,v1,v0
10003838:	24633039 	addiu	v1,v1,12345
1000383c:	00031402 	srl	v0,v1,0x10
10003840:	ac8371a0 	sw	v1,29088(a0)
10003844:	30427fff 	andi	v0,v0,0x7fff
10003848:	03e00008 	jr	ra
1000384c:	00000000 	sll	zero,zero,0x0

10003850 <srand>:
10003850:	3c02100e 	lui	v0,0x100e
10003854:	ac4471a0 	sw	a0,29088(v0)
10003858:	03e00008 	jr	ra
1000385c:	00000000 	sll	zero,zero,0x0

10003860 <itoa>:
10003860:	3c031000 	lui	v1,0x1000
10003864:	24627534 	addiu	v0,v1,30004
10003868:	8c6c7534 	lw	t4,30004(v1)
1000386c:	8c4b0004 	lw	t3,4(v0)
10003870:	8c4a0008 	lw	t2,8(v0)
10003874:	8c49000c 	lw	t1,12(v0)
10003878:	90480010 	lbu	t0,16(v0)
1000387c:	27bdffe8 	addiu	sp,sp,-24
10003880:	2403000a 	addiu	v1,zero,10
10003884:	00a01025 	or	v0,a1,zero
10003888:	afac0000 	sw	t4,0(sp)
1000388c:	afab0004 	sw	t3,4(sp)
10003890:	afaa0008 	sw	t2,8(sp)
10003894:	afa9000c 	sw	t1,12(sp)
10003898:	a3a80010 	sb	t0,16(sp)
1000389c:	10c30028 	beq	a2,v1,10003940 <itoa+0xe0>
100038a0:	00000000 	sll	zero,zero,0x0
100038a4:	00003825 	or	a3,zero,zero
100038a8:	00474021 	addu	t0,v0,a3
100038ac:	10000002 	beqz	zero,100038b8 <itoa+0x58>
100038b0:	00000000 	sll	zero,zero,0x0
100038b4:	01203825 	or	a3,t1,zero
100038b8:	0086001b 	divu	zero,a0,a2
100038bc:	25080001 	addiu	t0,t0,1
100038c0:	24e90001 	addiu	t1,a3,1
100038c4:	00001810 	mfhi	v1
100038c8:	00002012 	mflo	a0
100038cc:	03a31821 	addu	v1,sp,v1
100038d0:	90630000 	lbu	v1,0(v1)
100038d4:	a103ffff 	sb	v1,-1(t0)
100038d8:	1480fff6 	bnez	a0,100038b4 <itoa+0x54>
100038dc:	00000000 	sll	zero,zero,0x0
100038e0:	00494821 	addu	t1,v0,t1
100038e4:	a1200000 	sb	zero,0(t1)
100038e8:	80430000 	lb	v1,0(v0)
100038ec:	00072043 	sra	a0,a3,0x1
100038f0:	3863002d 	xori	v1,v1,0x2d
100038f4:	2c630001 	sltiu	v1,v1,1
100038f8:	0083282a 	slt	a1,a0,v1
100038fc:	14a0000d 	bnez	a1,10003934 <itoa+0xd4>
10003900:	00000000 	sll	zero,zero,0x0
10003904:	24480001 	addiu	t0,v0,1
10003908:	00431821 	addu	v1,v0,v1
1000390c:	00473821 	addu	a3,v0,a3
10003910:	01044021 	addu	t0,t0,a0
10003914:	80e60000 	lb	a2,0(a3)
10003918:	80640000 	lb	a0,0(v1)
1000391c:	a0660000 	sb	a2,0(v1)
10003920:	24630001 	addiu	v1,v1,1
10003924:	a0e40000 	sb	a0,0(a3)
10003928:	24e7ffff 	addiu	a3,a3,-1
1000392c:	1468fff9 	bne	v1,t0,10003914 <itoa+0xb4>
10003930:	00000000 	sll	zero,zero,0x0
10003934:	27bd0018 	addiu	sp,sp,24
10003938:	03e00008 	jr	ra
1000393c:	00000000 	sll	zero,zero,0x0
10003940:	0481ffd8 	bgez	a0,100038a4 <itoa+0x44>
10003944:	00000000 	sll	zero,zero,0x0
10003948:	24030001 	addiu	v1,zero,1
1000394c:	14e3ffd5 	bne	a3,v1,100038a4 <itoa+0x44>
10003950:	00000000 	sll	zero,zero,0x0
10003954:	2403002d 	addiu	v1,zero,45
10003958:	00042023 	negu	a0,a0
1000395c:	a0a30000 	sb	v1,0(a1)
10003960:	1000ffd1 	beqz	zero,100038a8 <itoa+0x48>
10003964:	00000000 	sll	zero,zero,0x0

10003968 <atoi>:
10003968:	1080002e 	beqz	a0,10003a24 <atoi+0xbc>
1000396c:	00000000 	sll	zero,zero,0x0
10003970:	80820000 	lb	v0,0(a0)
10003974:	24030020 	addiu	v1,zero,32
10003978:	14430005 	bne	v0,v1,10003990 <atoi+0x28>
1000397c:	00000000 	sll	zero,zero,0x0
10003980:	24840001 	addiu	a0,a0,1
10003984:	80820000 	lb	v0,0(a0)
10003988:	1043fffd 	beq	v0,v1,10003980 <atoi+0x18>
1000398c:	00000000 	sll	zero,zero,0x0
10003990:	2403002d 	addiu	v1,zero,45
10003994:	1043001b 	beq	v0,v1,10003a04 <atoi+0x9c>
10003998:	00000000 	sll	zero,zero,0x0
1000399c:	2403002b 	addiu	v1,zero,43
100039a0:	24070001 	addiu	a3,zero,1
100039a4:	10430018 	beq	v0,v1,10003a08 <atoi+0xa0>
100039a8:	00000000 	sll	zero,zero,0x0
100039ac:	80860000 	lb	a2,0(a0)
100039b0:	24c3ffd0 	addiu	v1,a2,-48
100039b4:	306300ff 	andi	v1,v1,0xff
100039b8:	2c63000a 	sltiu	v1,v1,10
100039bc:	10600019 	beqz	v1,10003a24 <atoi+0xbc>
100039c0:	00000000 	sll	zero,zero,0x0
100039c4:	00002825 	or	a1,zero,zero
100039c8:	00051080 	sll	v0,a1,0x2
100039cc:	00451021 	addu	v0,v0,a1
100039d0:	00021040 	sll	v0,v0,0x1
100039d4:	24840001 	addiu	a0,a0,1
100039d8:	00461021 	addu	v0,v0,a2
100039dc:	80860000 	lb	a2,0(a0)
100039e0:	2445ffd0 	addiu	a1,v0,-48
100039e4:	24c3ffd0 	addiu	v1,a2,-48
100039e8:	306300ff 	andi	v1,v1,0xff
100039ec:	2c63000a 	sltiu	v1,v1,10
100039f0:	1460fff5 	bnez	v1,100039c8 <atoi+0x60>
100039f4:	00000000 	sll	zero,zero,0x0
100039f8:	70a71002 	mul	v0,a1,a3
100039fc:	03e00008 	jr	ra
10003a00:	00000000 	sll	zero,zero,0x0
10003a04:	2407ffff 	addiu	a3,zero,-1
10003a08:	24840001 	addiu	a0,a0,1
10003a0c:	80860000 	lb	a2,0(a0)
10003a10:	24c3ffd0 	addiu	v1,a2,-48
10003a14:	306300ff 	andi	v1,v1,0xff
10003a18:	2c63000a 	sltiu	v1,v1,10
10003a1c:	1460ffe9 	bnez	v1,100039c4 <atoi+0x5c>
10003a20:	00000000 	sll	zero,zero,0x0
10003a24:	00001025 	or	v0,zero,zero
10003a28:	03e00008 	jr	ra
10003a2c:	00000000 	sll	zero,zero,0x0

10003a30 <fb_add>:
10003a30:	27bdffb0 	addiu	sp,sp,-80
10003a34:	afbf004c 	sw	ra,76(sp)
10003a38:	afbe0048 	sw	s8,72(sp)
10003a3c:	afb70044 	sw	s7,68(sp)
10003a40:	afb60040 	sw	s6,64(sp)
10003a44:	afb5003c 	sw	s5,60(sp)
10003a48:	afb40038 	sw	s4,56(sp)
10003a4c:	afb30034 	sw	s3,52(sp)
10003a50:	afb20030 	sw	s2,48(sp)
10003a54:	afb1002c 	sw	s1,44(sp)
10003a58:	afb00028 	sw	s0,40(sp)
10003a5c:	8c87000c 	lw	a3,12(a0)
10003a60:	8c820010 	lw	v0,16(a0)
10003a64:	afa70018 	sw	a3,24(sp)
10003a68:	8c850000 	lw	a1,0(a0)
10003a6c:	8c860004 	lw	a2,4(a0)
10003a70:	18400049 	blez	v0,10003b98 <fb_add+0x168>
10003a74:	00000000 	sll	zero,zero,0x0
10003a78:	00061880 	sll	v1,a2,0x2
10003a7c:	00461021 	addu	v0,v0,a2
10003a80:	0080b825 	or	s7,a0,zero
10003a84:	00662021 	addu	a0,v1,a2
10003a88:	00041980 	sll	v1,a0,0x6
10003a8c:	0002b080 	sll	s6,v0,0x2
10003a90:	02c21021 	addu	v0,s6,v0
10003a94:	00641823 	subu	v1,v1,a0
10003a98:	00031840 	sll	v1,v1,0x1
10003a9c:	0002b180 	sll	s6,v0,0x6
10003aa0:	00659021 	addu	s2,v1,a1
10003aa4:	02c2b023 	subu	s6,s6,v0
10003aa8:	3c1e100e 	lui	s8,0x100e
10003aac:	27c67260 	addiu	a2,s8,29280
10003ab0:	00a72821 	addu	a1,a1,a3
10003ab4:	00129880 	sll	s3,s2,0x2
10003ab8:	00161040 	sll	v0,s6,0x1
10003abc:	00072080 	sll	a0,a3,0x2
10003ac0:	afa60024 	sw	a2,36(sp)
10003ac4:	00129023 	negu	s2,s2
10003ac8:	00a3b021 	addu	s6,a1,v1
10003acc:	00d39821 	addu	s3,a2,s3
10003ad0:	2483f628 	addiu	v1,a0,-2520
10003ad4:	00451021 	addu	v0,v0,a1
10003ad8:	3c060004 	lui	a2,0x4
10003adc:	afa3001c 	sw	v1,28(sp)
10003ae0:	00129080 	sll	s2,s2,0x2
10003ae4:	afa20020 	sw	v0,32(sp)
10003ae8:	34de84a4 	ori	s8,a2,0x84a4
10003aec:	8fa20018 	lw	v0,24(sp)
10003af0:	18400022 	blez	v0,10003b7c <fb_add+0x14c>
10003af4:	00000000 	sll	zero,zero,0x0
10003af8:	8fa20018 	lw	v0,24(sp)
10003afc:	02608825 	or	s1,s3,zero
10003b00:	02c28023 	subu	s0,s6,v0
10003b04:	8fa20024 	lw	v0,36(sp)
10003b08:	0242a023 	subu	s4,s2,v0
10003b0c:	10000005 	beqz	zero,10003b24 <fb_add+0xf4>
10003b10:	00000000 	sll	zero,zero,0x0
10003b14:	26100001 	addiu	s0,s0,1
10003b18:	26310004 	addiu	s1,s1,4
10003b1c:	12160017 	beq	s0,s6,10003b7c <fb_add+0x14c>
10003b20:	00000000 	sll	zero,zero,0x0
10003b24:	021e102b 	sltu	v0,s0,s8
10003b28:	1040fffa 	beqz	v0,10003b14 <fb_add+0xe4>
10003b2c:	00000000 	sll	zero,zero,0x0
10003b30:	8ee20008 	lw	v0,8(s7)
10003b34:	0291a821 	addu	s5,s4,s1
10003b38:	00551021 	addu	v0,v0,s5
10003b3c:	8c450000 	lw	a1,0(v0)
10003b40:	27a40010 	addiu	a0,sp,16
10003b44:	0c000555 	jal	10001554 <int_to_color>
10003b48:	00000000 	sll	zero,zero,0x0
10003b4c:	93a20013 	lbu	v0,19(sp)
10003b50:	304200ff 	andi	v0,v0,0xff
10003b54:	1440001d 	bnez	v0,10003bcc <fb_add+0x19c>
10003b58:	00000000 	sll	zero,zero,0x0
10003b5c:	8ee20008 	lw	v0,8(s7)
10003b60:	00553821 	addu	a3,v0,s5
10003b64:	8ce20000 	lw	v0,0(a3)
10003b68:	ae220000 	sw	v0,0(s1)
10003b6c:	26100001 	addiu	s0,s0,1
10003b70:	26310004 	addiu	s1,s1,4
10003b74:	1616ffeb 	bne	s0,s6,10003b24 <fb_add+0xf4>
10003b78:	00000000 	sll	zero,zero,0x0
10003b7c:	8fa2001c 	lw	v0,28(sp)
10003b80:	26d60276 	addiu	s6,s6,630
10003b84:	02429021 	addu	s2,s2,v0
10003b88:	8fa20020 	lw	v0,32(sp)
10003b8c:	267309d8 	addiu	s3,s3,2520
10003b90:	16c2ffd6 	bne	s6,v0,10003aec <fb_add+0xbc>
10003b94:	00000000 	sll	zero,zero,0x0
10003b98:	8fbf004c 	lw	ra,76(sp)
10003b9c:	8fbe0048 	lw	s8,72(sp)
10003ba0:	8fb70044 	lw	s7,68(sp)
10003ba4:	8fb60040 	lw	s6,64(sp)
10003ba8:	8fb5003c 	lw	s5,60(sp)
10003bac:	8fb40038 	lw	s4,56(sp)
10003bb0:	8fb30034 	lw	s3,52(sp)
10003bb4:	8fb20030 	lw	s2,48(sp)
10003bb8:	8fb1002c 	lw	s1,44(sp)
10003bbc:	8fb00028 	lw	s0,40(sp)
10003bc0:	27bd0050 	addiu	sp,sp,80
10003bc4:	03e00008 	jr	ra
10003bc8:	00000000 	sll	zero,zero,0x0
10003bcc:	8e220000 	lw	v0,0(s1)
10003bd0:	ae220000 	sw	v0,0(s1)
10003bd4:	1000ffe5 	beqz	zero,10003b6c <fb_add+0x13c>
10003bd8:	00000000 	sll	zero,zero,0x0

10003bdc <fb_sync>:
10003bdc:	27bdffc8 	addiu	sp,sp,-56
10003be0:	240201d6 	addiu	v0,zero,470
10003be4:	afa20010 	sw	v0,16(sp)
10003be8:	8fa2002c 	lw	v0,44(sp)
10003bec:	3c06100e 	lui	a2,0x100e
10003bf0:	afbf0034 	sw	ra,52(sp)
10003bf4:	afa20014 	sw	v0,20(sp)
10003bf8:	00002025 	or	a0,zero,zero
10003bfc:	00002825 	or	a1,zero,zero
10003c00:	24c67260 	addiu	a2,a2,29280
10003c04:	24070276 	addiu	a3,zero,630
10003c08:	0c000433 	jal	100010cc <video_draw>
10003c0c:	00000000 	sll	zero,zero,0x0
10003c10:	8fbf0034 	lw	ra,52(sp)
10003c14:	27bd0038 	addiu	sp,sp,56
10003c18:	08000455 	j	10001154 <draw_sync>
10003c1c:	00000000 	sll	zero,zero,0x0

10003c20 <fb_clear>:
10003c20:	3c02100e 	lui	v0,0x100e
10003c24:	3c030012 	lui	v1,0x12
10003c28:	24427260 	addiu	v0,v0,29280
10003c2c:	24631290 	addiu	v1,v1,4752
10003c30:	00431821 	addu	v1,v0,v1
10003c34:	ac400000 	sw	zero,0(v0)
10003c38:	24420004 	addiu	v0,v0,4
10003c3c:	1443fffd 	bne	v0,v1,10003c34 <fb_clear+0x14>
10003c40:	00000000 	sll	zero,zero,0x0
10003c44:	03e00008 	jr	ra
10003c48:	00000000 	sll	zero,zero,0x0
10003c4c:	00000000 	sll	zero,zero,0x0

10003c50 <build_planeT>:
10003c50:	3c0a1033 	lui	t2,0x1033
10003c54:	27bdffb0 	addiu	sp,sp,-80
10003c58:	254aeb88 	addiu	t2,t2,-5240
10003c5c:	3c0b6666 	lui	t3,0x6666
10003c60:	8d4302d0 	lw	v1,720(t2)
10003c64:	afa7005c 	sw	a3,92(sp)
10003c68:	afbf004c 	sw	ra,76(sp)
10003c6c:	afb00048 	sw	s0,72(sp)
10003c70:	afa40050 	sw	a0,80(sp)
10003c74:	afa50054 	sw	a1,84(sp)
10003c78:	afa60058 	sw	a2,88(sp)
10003c7c:	24070014 	addiu	a3,zero,20
10003c80:	256b6667 	addiu	t3,t3,26215
10003c84:	10000003 	beqz	zero,10003c94 <build_planeT+0x44>
10003c88:	00000000 	sll	zero,zero,0x0
10003c8c:	10e00045 	beqz	a3,10003da4 <build_planeT+0x154>
10003c90:	00000000 	sll	zero,zero,0x0
10003c94:	24660001 	addiu	a2,v1,1
10003c98:	00cb0018 	mult	a2,t3
10003c9c:	000320c0 	sll	a0,v1,0x3
10003ca0:	00004810 	mfhi	t1
10003ca4:	00831821 	addu	v1,a0,v1
10003ca8:	00032080 	sll	a0,v1,0x2
10003cac:	000910c3 	sra	v0,t1,0x3
10003cb0:	00062fc3 	sra	a1,a2,0x1f
10003cb4:	00451823 	subu	v1,v0,a1
10003cb8:	01441021 	addu	v0,t2,a0
10003cbc:	90450001 	lbu	a1,1(v0)
10003cc0:	00032080 	sll	a0,v1,0x2
10003cc4:	00831821 	addu	v1,a0,v1
10003cc8:	00052600 	sll	a0,a1,0x18
10003ccc:	00031880 	sll	v1,v1,0x2
10003cd0:	00042603 	sra	a0,a0,0x18
10003cd4:	24e7ffff 	addiu	a3,a3,-1
10003cd8:	00c31823 	subu	v1,a2,v1
10003cdc:	1480ffeb 	bnez	a0,10003c8c <build_planeT+0x3c>
10003ce0:	00000000 	sll	zero,zero,0x0
10003ce4:	8fae0050 	lw	t6,80(sp)
10003ce8:	8fad0054 	lw	t5,84(sp)
10003cec:	8fac0058 	lw	t4,88(sp)
10003cf0:	8fab005c 	lw	t3,92(sp)
10003cf4:	8fa90060 	lw	t1,96(sp)
10003cf8:	8fa80064 	lw	t0,100(sp)
10003cfc:	8fa60068 	lw	a2,104(sp)
10003d00:	00408025 	or	s0,v0,zero
10003d04:	24040054 	addiu	a0,zero,84
10003d08:	24020001 	addiu	v0,zero,1
10003d0c:	a2020001 	sb	v0,1(s0)
10003d10:	a2040000 	sb	a0,0(s0)
10003d14:	a2020001 	sb	v0,1(s0)
10003d18:	ae0e0004 	sw	t6,4(s0)
10003d1c:	ae0d0008 	sw	t5,8(s0)
10003d20:	ae0c000c 	sw	t4,12(s0)
10003d24:	ae0b0010 	sw	t3,16(s0)
10003d28:	ae090014 	sw	t1,20(s0)
10003d2c:	ae080018 	sw	t0,24(s0)
10003d30:	ae06001c 	sw	a2,28(s0)
10003d34:	8e040004 	lw	a0,4(s0)
10003d38:	8e050008 	lw	a1,8(s0)
10003d3c:	a3a00044 	sb	zero,68(sp)
10003d40:	24020002 	addiu	v0,zero,2
10003d44:	8e070018 	lw	a3,24(s0)
10003d48:	afae0018 	sw	t6,24(sp)
10003d4c:	afad001c 	sw	t5,28(sp)
10003d50:	afac0020 	sw	t4,32(sp)
10003d54:	afab0024 	sw	t3,36(sp)
10003d58:	afa90028 	sw	t1,40(sp)
10003d5c:	afa8002c 	sw	t0,44(sp)
10003d60:	afa60030 	sw	a2,48(sp)
10003d64:	afa40034 	sw	a0,52(sp)
10003d68:	afa50038 	sw	a1,56(sp)
10003d6c:	ad4302d0 	sw	v1,720(t2)
10003d70:	afa2003c 	sw	v0,60(sp)
10003d74:	8fa20044 	lw	v0,68(sp)
10003d78:	24060002 	addiu	a2,zero,2
10003d7c:	afa20010 	sw	v0,16(sp)
10003d80:	0c000138 	jal	100004e0 <build_hp>
10003d84:	00000000 	sll	zero,zero,0x0
10003d88:	ae020020 	sw	v0,32(s0)
10003d8c:	8fbf004c 	lw	ra,76(sp)
10003d90:	02001025 	or	v0,s0,zero
10003d94:	8fb00048 	lw	s0,72(sp)
10003d98:	27bd0050 	addiu	sp,sp,80
10003d9c:	03e00008 	jr	ra
10003da0:	00000000 	sll	zero,zero,0x0
10003da4:	3c041000 	lui	a0,0x1000
10003da8:	24847548 	addiu	a0,a0,30024
10003dac:	ad4302d0 	sw	v1,720(t2)
10003db0:	0c000cb5 	jal	100032d4 <printf>
10003db4:	00000000 	sll	zero,zero,0x0
10003db8:	8fbf004c 	lw	ra,76(sp)
10003dbc:	00008025 	or	s0,zero,zero
10003dc0:	02001025 	or	v0,s0,zero
10003dc4:	8fb00048 	lw	s0,72(sp)
10003dc8:	27bd0050 	addiu	sp,sp,80
10003dcc:	03e00008 	jr	ra
10003dd0:	00000000 	sll	zero,zero,0x0

10003dd4 <planeT_delete>:
10003dd4:	27bdffe8 	addiu	sp,sp,-24
10003dd8:	afb00010 	sw	s0,16(sp)
10003ddc:	afbf0014 	sw	ra,20(sp)
10003de0:	00808025 	or	s0,a0,zero
10003de4:	8c840020 	lw	a0,32(a0)
10003de8:	0c000184 	jal	10000610 <hp_delete>
10003dec:	00000000 	sll	zero,zero,0x0
10003df0:	a2000001 	sb	zero,1(s0)
10003df4:	8fbf0014 	lw	ra,20(sp)
10003df8:	8fb00010 	lw	s0,16(sp)
10003dfc:	27bd0018 	addiu	sp,sp,24
10003e00:	03e00008 	jr	ra
10003e04:	00000000 	sll	zero,zero,0x0

10003e08 <planeT_draw>:
10003e08:	27bdffa8 	addiu	sp,sp,-88
10003e0c:	afb60048 	sw	s6,72(sp)
10003e10:	afb40040 	sw	s4,64(sp)
10003e14:	afb20038 	sw	s2,56(sp)
10003e18:	afbf0054 	sw	ra,84(sp)
10003e1c:	afbe0050 	sw	s8,80(sp)
10003e20:	afb7004c 	sw	s7,76(sp)
10003e24:	afb50044 	sw	s5,68(sp)
10003e28:	afb3003c 	sw	s3,60(sp)
10003e2c:	afb10034 	sw	s1,52(sp)
10003e30:	afb00030 	sw	s0,48(sp)
10003e34:	afa40058 	sw	a0,88(sp)
10003e38:	8c840020 	lw	a0,32(a0)
10003e3c:	0c000187 	jal	1000061c <hp_draw>
10003e40:	00000000 	sll	zero,zero,0x0
10003e44:	3c02100e 	lui	v0,0x100e
10003e48:	8c526fac 	lw	s2,28588(v0)
10003e4c:	8e560016 	lw	s6,22(s2)
10003e50:	8e540012 	lw	s4,18(s2)
10003e54:	1ac0004b 	blez	s6,10003f84 <planeT_draw+0x17c>
10003e58:	00000000 	sll	zero,zero,0x0
10003e5c:	3c021021 	lui	v0,0x1021
10003e60:	2445a13c 	addiu	a1,v0,-24260
10003e64:	0014a840 	sll	s5,s4,0x1
10003e68:	00141080 	sll	v0,s4,0x2
10003e6c:	afa5002c 	sw	a1,44(sp)
10003e70:	02b4a821 	addu	s5,s5,s4
10003e74:	26520036 	addiu	s2,s2,54
10003e78:	afa20028 	sw	v0,40(sp)
10003e7c:	00009825 	or	s3,zero,zero
10003e80:	24100001 	addiu	s0,zero,1
10003e84:	8fa20028 	lw	v0,40(sp)
10003e88:	00a28821 	addu	s1,a1,v0
10003e8c:	1a800015 	blez	s4,10003ee4 <planeT_draw+0xdc>
10003e90:	00000000 	sll	zero,zero,0x0
10003e94:	00a0b825 	or	s7,a1,zero
10003e98:	0240f025 	or	s8,s2,zero
10003e9c:	93c20000 	lbu	v0,0(s8)
10003ea0:	a3a20010 	sb	v0,16(sp)
10003ea4:	93c20001 	lbu	v0,1(s8)
10003ea8:	a3a20011 	sb	v0,17(sp)
10003eac:	93c20002 	lbu	v0,2(s8)
10003eb0:	a3a20012 	sb	v0,18(sp)
10003eb4:	93a20010 	lbu	v0,16(sp)
10003eb8:	12020029 	beq	s0,v0,10003f60 <planeT_draw+0x158>
10003ebc:	00000000 	sll	zero,zero,0x0
10003ec0:	a3a00013 	sb	zero,19(sp)
10003ec4:	8fa40010 	lw	a0,16(sp)
10003ec8:	26f70004 	addiu	s7,s7,4
10003ecc:	0c000550 	jal	10001540 <color_to_int>
10003ed0:	00000000 	sll	zero,zero,0x0
10003ed4:	aee2fffc 	sw	v0,-4(s7)
10003ed8:	27de0003 	addiu	s8,s8,3
10003edc:	16f1ffef 	bne	s7,s1,10003e9c <planeT_draw+0x94>
10003ee0:	00000000 	sll	zero,zero,0x0
10003ee4:	26730001 	addiu	s3,s3,1
10003ee8:	02559021 	addu	s2,s2,s5
10003eec:	02202825 	or	a1,s1,zero
10003ef0:	16d3ffe4 	bne	s6,s3,10003e84 <planeT_draw+0x7c>
10003ef4:	00000000 	sll	zero,zero,0x0
10003ef8:	8fa20058 	lw	v0,88(sp)
10003efc:	27a40010 	addiu	a0,sp,16
10003f00:	8c430004 	lw	v1,4(v0)
10003f04:	8c420008 	lw	v0,8(v0)
10003f08:	afb4001c 	sw	s4,28(sp)
10003f0c:	afa20014 	sw	v0,20(sp)
10003f10:	8fa2002c 	lw	v0,44(sp)
10003f14:	afb60020 	sw	s6,32(sp)
10003f18:	afa30010 	sw	v1,16(sp)
10003f1c:	afa20018 	sw	v0,24(sp)
10003f20:	afa00024 	sw	zero,36(sp)
10003f24:	0c000e8c 	jal	10003a30 <fb_add>
10003f28:	00000000 	sll	zero,zero,0x0
10003f2c:	8fbf0054 	lw	ra,84(sp)
10003f30:	8fbe0050 	lw	s8,80(sp)
10003f34:	8fb7004c 	lw	s7,76(sp)
10003f38:	8fb60048 	lw	s6,72(sp)
10003f3c:	8fb50044 	lw	s5,68(sp)
10003f40:	8fb40040 	lw	s4,64(sp)
10003f44:	8fb3003c 	lw	s3,60(sp)
10003f48:	8fb20038 	lw	s2,56(sp)
10003f4c:	8fb10034 	lw	s1,52(sp)
10003f50:	8fb00030 	lw	s0,48(sp)
10003f54:	27bd0058 	addiu	sp,sp,88
10003f58:	03e00008 	jr	ra
10003f5c:	00000000 	sll	zero,zero,0x0
10003f60:	93a20011 	lbu	v0,17(sp)
10003f64:	1602ffd6 	bne	s0,v0,10003ec0 <planeT_draw+0xb8>
10003f68:	00000000 	sll	zero,zero,0x0
10003f6c:	93a20012 	lbu	v0,18(sp)
10003f70:	1602ffd3 	bne	s0,v0,10003ec0 <planeT_draw+0xb8>
10003f74:	00000000 	sll	zero,zero,0x0
10003f78:	a3b00013 	sb	s0,19(sp)
10003f7c:	1000ffd1 	beqz	zero,10003ec4 <planeT_draw+0xbc>
10003f80:	00000000 	sll	zero,zero,0x0
10003f84:	3c021021 	lui	v0,0x1021
10003f88:	2442a13c 	addiu	v0,v0,-24260
10003f8c:	afa2002c 	sw	v0,44(sp)
10003f90:	1000ffd9 	beqz	zero,10003ef8 <planeT_draw+0xf0>
10003f94:	00000000 	sll	zero,zero,0x0

10003f98 <planeT_move>:
10003f98:	8c830004 	lw	v1,4(a0)
10003f9c:	00801025 	or	v0,a0,zero
10003fa0:	00651821 	addu	v1,v1,a1
10003fa4:	8c840020 	lw	a0,32(a0)
10003fa8:	ac430004 	sw	v1,4(v0)
10003fac:	8c430008 	lw	v1,8(v0)
10003fb0:	00661821 	addu	v1,v1,a2
10003fb4:	ac430008 	sw	v1,8(v0)
10003fb8:	080001ec 	j	100007b0 <hp_move>
10003fbc:	00000000 	sll	zero,zero,0x0

10003fc0 <planeT_locate>:
10003fc0:	8c820004 	lw	v0,4(a0)
10003fc4:	aca20000 	sw	v0,0(a1)
10003fc8:	8c830008 	lw	v1,8(a0)
10003fcc:	3c02100e 	lui	v0,0x100e
10003fd0:	8c426fac 	lw	v0,28588(v0)
10003fd4:	aca30004 	sw	v1,4(a1)
10003fd8:	8c430012 	lw	v1,18(v0)
10003fdc:	aca30008 	sw	v1,8(a1)
10003fe0:	8c420016 	lw	v0,22(v0)
10003fe4:	aca2000c 	sw	v0,12(a1)
10003fe8:	03e00008 	jr	ra
10003fec:	00000000 	sll	zero,zero,0x0

10003ff0 <planeT_automove>:
10003ff0:	8c85000c 	lw	a1,12(a0)
10003ff4:	8c830004 	lw	v1,4(a0)
10003ff8:	00801025 	or	v0,a0,zero
10003ffc:	00651821 	addu	v1,v1,a1
10004000:	8c840020 	lw	a0,32(a0)
10004004:	ac430004 	sw	v1,4(v0)
10004008:	8c450010 	lw	a1,16(v0)
1000400c:	8c430008 	lw	v1,8(v0)
10004010:	00651821 	addu	v1,v1,a1
10004014:	ac430008 	sw	v1,8(v0)
10004018:	8c45000c 	lw	a1,12(v0)
1000401c:	8c460010 	lw	a2,16(v0)
10004020:	080001ec 	j	100007b0 <hp_move>
10004024:	00000000 	sll	zero,zero,0x0

10004028 <planeT_hurt>:
10004028:	8c840020 	lw	a0,32(a0)
1000402c:	080001f4 	j	100007d0 <hp_decrease>
10004030:	00000000 	sll	zero,zero,0x0

10004034 <planeT_isCrash>:
10004034:	8c820020 	lw	v0,32(a0)
10004038:	8c420018 	lw	v0,24(v0)
1000403c:	28420001 	slti	v0,v0,1
10004040:	03e00008 	jr	ra
10004044:	00000000 	sll	zero,zero,0x0

10004048 <planeT_get_attack>:
10004048:	8c82001c 	lw	v0,28(a0)
1000404c:	03e00008 	jr	ra
10004050:	00000000 	sll	zero,zero,0x0

10004054 <planeT_set_attack>:
10004054:	ac85001c 	sw	a1,28(a0)
10004058:	03e00008 	jr	ra
1000405c:	00000000 	sll	zero,zero,0x0

10004060 <planeT_get_hp>:
10004060:	8c820020 	lw	v0,32(a0)
10004064:	8c420018 	lw	v0,24(v0)
10004068:	03e00008 	jr	ra
1000406c:	00000000 	sll	zero,zero,0x0

10004070 <build_line>:
10004070:	3c091033 	lui	t1,0x1033
10004074:	27bdffd0 	addiu	sp,sp,-48
10004078:	2529ee5c 	addiu	t1,t1,-4516
1000407c:	3c0a51eb 	lui	t2,0x51eb
10004080:	8d280af0 	lw	t0,2800(t1)
10004084:	afa7003c 	sw	a3,60(sp)
10004088:	afbf002c 	sw	ra,44(sp)
1000408c:	afa40030 	sw	a0,48(sp)
10004090:	afa50034 	sw	a1,52(sp)
10004094:	afa60038 	sw	a2,56(sp)
10004098:	24070064 	addiu	a3,zero,100
1000409c:	354a851f 	ori	t2,t2,0x851f
100040a0:	10000004 	beqz	zero,100040b4 <build_line+0x44>
100040a4:	00000000 	sll	zero,zero,0x0
100040a8:	00804025 	or	t0,a0,zero
100040ac:	10e0002d 	beqz	a3,10004164 <build_line+0xf4>
100040b0:	00000000 	sll	zero,zero,0x0
100040b4:	25060001 	addiu	a2,t0,1
100040b8:	00ca0018 	mult	a2,t2
100040bc:	000810c0 	sll	v0,t0,0x3
100040c0:	00002810 	mfhi	a1
100040c4:	000627c3 	sra	a0,a2,0x1f
100040c8:	00051943 	sra	v1,a1,0x5
100040cc:	00481023 	subu	v0,v0,t0
100040d0:	00642023 	subu	a0,v1,a0
100040d4:	00021080 	sll	v0,v0,0x2
100040d8:	00041840 	sll	v1,a0,0x1
100040dc:	01221021 	addu	v0,t1,v0
100040e0:	00641821 	addu	v1,v1,a0
100040e4:	90450001 	lbu	a1,1(v0)
100040e8:	000318c0 	sll	v1,v1,0x3
100040ec:	00641821 	addu	v1,v1,a0
100040f0:	00052e00 	sll	a1,a1,0x18
100040f4:	00031880 	sll	v1,v1,0x2
100040f8:	00052e03 	sra	a1,a1,0x18
100040fc:	24e7ffff 	addiu	a3,a3,-1
10004100:	00c32023 	subu	a0,a2,v1
10004104:	14a0ffe8 	bnez	a1,100040a8 <build_line+0x38>
10004108:	00000000 	sll	zero,zero,0x0
1000410c:	24030001 	addiu	v1,zero,1
10004110:	ad240af0 	sw	a0,2800(t1)
10004114:	2404004c 	addiu	a0,zero,76
10004118:	a0430001 	sb	v1,1(v0)
1000411c:	a0440000 	sb	a0,0(v0)
10004120:	a0430001 	sb	v1,1(v0)
10004124:	8fa30030 	lw	v1,48(sp)
10004128:	ac430004 	sw	v1,4(v0)
1000412c:	8fa30034 	lw	v1,52(sp)
10004130:	ac430008 	sw	v1,8(v0)
10004134:	8fa30038 	lw	v1,56(sp)
10004138:	ac43000c 	sw	v1,12(v0)
1000413c:	8fa3003c 	lw	v1,60(sp)
10004140:	ac430010 	sw	v1,16(v0)
10004144:	8fa30040 	lw	v1,64(sp)
10004148:	ac430014 	sw	v1,20(v0)
1000414c:	8fa30044 	lw	v1,68(sp)
10004150:	ac430018 	sw	v1,24(v0)
10004154:	8fbf002c 	lw	ra,44(sp)
10004158:	27bd0030 	addiu	sp,sp,48
1000415c:	03e00008 	jr	ra
10004160:	00000000 	sll	zero,zero,0x0
10004164:	3c041000 	lui	a0,0x1000
10004168:	2484757c 	addiu	a0,a0,30076
1000416c:	ad280af0 	sw	t0,2800(t1)
10004170:	0c000cb5 	jal	100032d4 <printf>
10004174:	00000000 	sll	zero,zero,0x0
10004178:	8fbf002c 	lw	ra,44(sp)
1000417c:	00001025 	or	v0,zero,zero
10004180:	27bd0030 	addiu	sp,sp,48
10004184:	03e00008 	jr	ra
10004188:	00000000 	sll	zero,zero,0x0

1000418c <line_delete>:
1000418c:	a0800001 	sb	zero,1(a0)
10004190:	03e00008 	jr	ra
10004194:	00000000 	sll	zero,zero,0x0

10004198 <line_draw>:
10004198:	27bdffd0 	addiu	sp,sp,-48
1000419c:	afb00028 	sw	s0,40(sp)
100041a0:	afbf002c 	sw	ra,44(sp)
100041a4:	00808025 	or	s0,a0,zero
100041a8:	8c840010 	lw	a0,16(a0)
100041ac:	0c000550 	jal	10001540 <color_to_int>
100041b0:	00000000 	sll	zero,zero,0x0
100041b4:	92030018 	lbu	v1,24(s0)
100041b8:	00031e00 	sll	v1,v1,0x18
100041bc:	00031e03 	sra	v1,v1,0x18
100041c0:	10600026 	beqz	v1,1000425c <line_draw+0xc4>
100041c4:	00000000 	sll	zero,zero,0x0
100041c8:	8e070014 	lw	a3,20(s0)
100041cc:	8e06000c 	lw	a2,12(s0)
100041d0:	3c091021 	lui	t1,0x1021
100041d4:	2529a13c 	addiu	t1,t1,-24260
100041d8:	18c0000f 	blez	a2,10004218 <line_draw+0x80>
100041dc:	00000000 	sll	zero,zero,0x0
100041e0:	00074080 	sll	t0,a3,0x2
100041e4:	01201825 	or	v1,t1,zero
100041e8:	00002825 	or	a1,zero,zero
100041ec:	00682021 	addu	a0,v1,t0
100041f0:	18e00005 	blez	a3,10004208 <line_draw+0x70>
100041f4:	00000000 	sll	zero,zero,0x0
100041f8:	ac620000 	sw	v0,0(v1)
100041fc:	24630004 	addiu	v1,v1,4
10004200:	1464fffd 	bne	v1,a0,100041f8 <line_draw+0x60>
10004204:	00000000 	sll	zero,zero,0x0
10004208:	24a50001 	addiu	a1,a1,1
1000420c:	00801825 	or	v1,a0,zero
10004210:	14c5fff6 	bne	a2,a1,100041ec <line_draw+0x54>
10004214:	00000000 	sll	zero,zero,0x0
10004218:	8e030004 	lw	v1,4(s0)
1000421c:	8e020008 	lw	v0,8(s0)
10004220:	27a40010 	addiu	a0,sp,16
10004224:	afa20014 	sw	v0,20(sp)
10004228:	24020001 	addiu	v0,zero,1
1000422c:	afa30010 	sw	v1,16(sp)
10004230:	afa7001c 	sw	a3,28(sp)
10004234:	afa60020 	sw	a2,32(sp)
10004238:	afa90018 	sw	t1,24(sp)
1000423c:	afa20024 	sw	v0,36(sp)
10004240:	0c000e8c 	jal	10003a30 <fb_add>
10004244:	00000000 	sll	zero,zero,0x0
10004248:	8fbf002c 	lw	ra,44(sp)
1000424c:	8fb00028 	lw	s0,40(sp)
10004250:	27bd0030 	addiu	sp,sp,48
10004254:	03e00008 	jr	ra
10004258:	00000000 	sll	zero,zero,0x0
1000425c:	8e07000c 	lw	a3,12(s0)
10004260:	8e060014 	lw	a2,20(s0)
10004264:	1000ffda 	beqz	zero,100041d0 <line_draw+0x38>
10004268:	00000000 	sll	zero,zero,0x0

1000426c <line_move>:
1000426c:	8c820004 	lw	v0,4(a0)
10004270:	00452821 	addu	a1,v0,a1
10004274:	ac850004 	sw	a1,4(a0)
10004278:	8c820008 	lw	v0,8(a0)
1000427c:	00463021 	addu	a2,v0,a2
10004280:	ac860008 	sw	a2,8(a0)
10004284:	03e00008 	jr	ra
10004288:	00000000 	sll	zero,zero,0x0
1000428c:	00000000 	sll	zero,zero,0x0

10004290 <mv_virtual_automove>:
10004290:	90820001 	lbu	v0,1(a0)
10004294:	27bdfff8 	addiu	sp,sp,-8
10004298:	a3a20001 	sb	v0,1(sp)
1000429c:	93a20001 	lbu	v0,1(sp)
100042a0:	90830000 	lbu	v1,0(a0)
100042a4:	00021600 	sll	v0,v0,0x18
100042a8:	00021603 	sra	v0,v0,0x18
100042ac:	a3a30000 	sb	v1,0(sp)
100042b0:	1040000e 	beqz	v0,100042ec <mv_virtual_automove+0x5c>
100042b4:	00000000 	sll	zero,zero,0x0
100042b8:	93a20000 	lbu	v0,0(sp)
100042bc:	2442ffbe 	addiu	v0,v0,-66
100042c0:	304200ff 	andi	v0,v0,0xff
100042c4:	2c430017 	sltiu	v1,v0,23
100042c8:	10600008 	beqz	v1,100042ec <mv_virtual_automove+0x5c>
100042cc:	00000000 	sll	zero,zero,0x0
100042d0:	3c03100e 	lui	v1,0x100e
100042d4:	00021080 	sll	v0,v0,0x2
100042d8:	24636b10 	addiu	v1,v1,27408
100042dc:	00621021 	addu	v0,v1,v0
100042e0:	8c420000 	lw	v0,0(v0)
100042e4:	00400008 	jr	v0
100042e8:	00000000 	sll	zero,zero,0x0
100042ec:	27bd0008 	addiu	sp,sp,8
100042f0:	03e00008 	jr	ra
100042f4:	00000000 	sll	zero,zero,0x0
100042f8:	27bd0008 	addiu	sp,sp,8
100042fc:	080002e8 	j	10000ba0 <planeX_automove>
10004300:	00000000 	sll	zero,zero,0x0
10004304:	27bd0008 	addiu	sp,sp,8
10004308:	08001390 	j	10004e40 <planeU_automove>
1000430c:	00000000 	sll	zero,zero,0x0
10004310:	27bd0008 	addiu	sp,sp,8
10004314:	08000ffc 	j	10003ff0 <planeT_automove>
10004318:	00000000 	sll	zero,zero,0x0
1000431c:	27bd0008 	addiu	sp,sp,8
10004320:	08001498 	j	10005260 <planeI_automove>
10004324:	00000000 	sll	zero,zero,0x0
10004328:	27bd0008 	addiu	sp,sp,8
1000432c:	08000dd1 	j	10003744 <bullet_automove>
10004330:	00000000 	sll	zero,zero,0x0
	...

10004340 <kbRespond_init>:
10004340:	27bdffe8 	addiu	sp,sp,-24
10004344:	afb00010 	sw	s0,16(sp)
10004348:	3c101033 	lui	s0,0x1033
1000434c:	2604f950 	addiu	a0,s0,-1712
10004350:	24060050 	addiu	a2,zero,80
10004354:	2610f950 	addiu	s0,s0,-1712
10004358:	00002825 	or	a1,zero,zero
1000435c:	afbf0014 	sw	ra,20(sp)
10004360:	0c000df4 	jal	100037d0 <memset>
10004364:	00000000 	sll	zero,zero,0x0
10004368:	02001025 	or	v0,s0,zero
1000436c:	ae000050 	sw	zero,80(s0)
10004370:	26030050 	addiu	v1,s0,80
10004374:	ac400000 	sw	zero,0(v0)
10004378:	24420004 	addiu	v0,v0,4
1000437c:	1443fffd 	bne	v0,v1,10004374 <kbRespond_init+0x34>
10004380:	00000000 	sll	zero,zero,0x0
10004384:	8fbf0014 	lw	ra,20(sp)
10004388:	8fb00010 	lw	s0,16(sp)
1000438c:	27bd0018 	addiu	sp,sp,24
10004390:	03e00008 	jr	ra
10004394:	00000000 	sll	zero,zero,0x0

10004398 <kbRespond_add>:
10004398:	3c061033 	lui	a2,0x1033
1000439c:	24c6f950 	addiu	a2,a2,-1712
100043a0:	8cc20050 	lw	v0,80(a2)
100043a4:	2447ffff 	addiu	a3,v0,-1
100043a8:	04e10002 	bgez	a3,100043b4 <kbRespond_add+0x1c>
100043ac:	00000000 	sll	zero,zero,0x0
100043b0:	24470013 	addiu	a3,v0,19
100043b4:	00021880 	sll	v1,v0,0x2
100043b8:	00c32821 	addu	a1,a2,v1
100043bc:	8ca50000 	lw	a1,0(a1)
100043c0:	10a00019 	beqz	a1,10004428 <kbRespond_add+0x90>
100043c4:	00000000 	sll	zero,zero,0x0
100043c8:	1047001e 	beq	v0,a3,10004444 <kbRespond_add+0xac>
100043cc:	00000000 	sll	zero,zero,0x0
100043d0:	3c0a6666 	lui	t2,0x6666
100043d4:	254a6667 	addiu	t2,t2,26215
100043d8:	10000003 	beqz	zero,100043e8 <kbRespond_add+0x50>
100043dc:	00000000 	sll	zero,zero,0x0
100043e0:	10470017 	beq	v0,a3,10004440 <kbRespond_add+0xa8>
100043e4:	00000000 	sll	zero,zero,0x0
100043e8:	24450001 	addiu	a1,v0,1
100043ec:	00aa0018 	mult	a1,t2
100043f0:	00051fc3 	sra	v1,a1,0x1f
100043f4:	00004810 	mfhi	t1
100043f8:	000910c3 	sra	v0,t1,0x3
100043fc:	00431023 	subu	v0,v0,v1
10004400:	00021880 	sll	v1,v0,0x2
10004404:	00621021 	addu	v0,v1,v0
10004408:	00021080 	sll	v0,v0,0x2
1000440c:	00a21023 	subu	v0,a1,v0
10004410:	00021880 	sll	v1,v0,0x2
10004414:	00c32821 	addu	a1,a2,v1
10004418:	8ca50000 	lw	a1,0(a1)
1000441c:	14a0fff0 	bnez	a1,100043e0 <kbRespond_add+0x48>
10004420:	00000000 	sll	zero,zero,0x0
10004424:	acc20050 	sw	v0,80(a2)
10004428:	10e20006 	beq	a3,v0,10004444 <kbRespond_add+0xac>
1000442c:	00000000 	sll	zero,zero,0x0
10004430:	00c31821 	addu	v1,a2,v1
10004434:	ac640000 	sw	a0,0(v1)
10004438:	03e00008 	jr	ra
1000443c:	00000000 	sll	zero,zero,0x0
10004440:	acc20050 	sw	v0,80(a2)
10004444:	3c041000 	lui	a0,0x1000
10004448:	248475b0 	addiu	a0,a0,30128
1000444c:	08000cb5 	j	100032d4 <printf>
10004450:	00000000 	sll	zero,zero,0x0

10004454 <kbRespond_clear>:
10004454:	3c041033 	lui	a0,0x1033
10004458:	2484f950 	addiu	a0,a0,-1712
1000445c:	00801025 	or	v0,a0,zero
10004460:	24830050 	addiu	v1,a0,80
10004464:	ac400000 	sw	zero,0(v0)
10004468:	24420004 	addiu	v0,v0,4
1000446c:	1443fffd 	bne	v0,v1,10004464 <kbRespond_clear+0x10>
10004470:	00000000 	sll	zero,zero,0x0
10004474:	ac800050 	sw	zero,80(a0)
10004478:	03e00008 	jr	ra
1000447c:	00000000 	sll	zero,zero,0x0

10004480 <kbRespond_action>:
10004480:	27bdffd0 	addiu	sp,sp,-48
10004484:	27a40010 	addiu	a0,sp,16
10004488:	afb30028 	sw	s3,40(sp)
1000448c:	afbf002c 	sw	ra,44(sp)
10004490:	afb20024 	sw	s2,36(sp)
10004494:	afb10020 	sw	s1,32(sp)
10004498:	afb0001c 	sw	s0,28(sp)
1000449c:	0c000407 	jal	1000101c <read_key>
100044a0:	00000000 	sll	zero,zero,0x0
100044a4:	8fa20010 	lw	v0,16(sp)
100044a8:	3c131021 	lui	s3,0x1021
100044ac:	10400012 	beqz	v0,100044f8 <kbRespond_action+0x78>
100044b0:	00000000 	sll	zero,zero,0x0
100044b4:	8fb10014 	lw	s1,20(sp)
100044b8:	82628510 	lb	v0,-31472(s3)
100044bc:	1222000e 	beq	s1,v0,100044f8 <kbRespond_action+0x78>
100044c0:	00000000 	sll	zero,zero,0x0
100044c4:	3c101033 	lui	s0,0x1033
100044c8:	2610f950 	addiu	s0,s0,-1712
100044cc:	26120050 	addiu	s2,s0,80
100044d0:	8e020000 	lw	v0,0(s0)
100044d4:	02202825 	or	a1,s1,zero
100044d8:	26100004 	addiu	s0,s0,4
100044dc:	00402025 	or	a0,v0,zero
100044e0:	10400003 	beqz	v0,100044f0 <kbRespond_action+0x70>
100044e4:	00000000 	sll	zero,zero,0x0
100044e8:	0c00069c 	jal	10001a70 <kb_virtual_answer>
100044ec:	00000000 	sll	zero,zero,0x0
100044f0:	1650fff7 	bne	s2,s0,100044d0 <kbRespond_action+0x50>
100044f4:	00000000 	sll	zero,zero,0x0
100044f8:	8fbf002c 	lw	ra,44(sp)
100044fc:	8fb20024 	lw	s2,36(sp)
10004500:	8fb10020 	lw	s1,32(sp)
10004504:	8fb0001c 	lw	s0,28(sp)
10004508:	a2608510 	sb	zero,-31472(s3)
1000450c:	8fb30028 	lw	s3,40(sp)
10004510:	27bd0030 	addiu	sp,sp,48
10004514:	03e00008 	jr	ra
10004518:	00000000 	sll	zero,zero,0x0

1000451c <kbRespond_rm>:
1000451c:	3c061033 	lui	a2,0x1033
10004520:	8cc2f950 	lw	v0,-1712(a2)
10004524:	10820015 	beq	a0,v0,1000457c <kbRespond_rm+0x60>
10004528:	00000000 	sll	zero,zero,0x0
1000452c:	3c021033 	lui	v0,0x1033
10004530:	2442f954 	addiu	v0,v0,-1708
10004534:	00001825 	or	v1,zero,zero
10004538:	24420004 	addiu	v0,v0,4
1000453c:	8c45fffc 	lw	a1,-4(v0)
10004540:	24630001 	addiu	v1,v1,1
10004544:	1485fffc 	bne	a0,a1,10004538 <kbRespond_rm+0x1c>
10004548:	00000000 	sll	zero,zero,0x0
1000454c:	10800007 	beqz	a0,1000456c <kbRespond_rm+0x50>
10004550:	00000000 	sll	zero,zero,0x0
10004554:	00031880 	sll	v1,v1,0x2
10004558:	24c6f950 	addiu	a2,a2,-1712
1000455c:	00661821 	addu	v1,v1,a2
10004560:	ac600000 	sw	zero,0(v1)
10004564:	03e00008 	jr	ra
10004568:	00000000 	sll	zero,zero,0x0
1000456c:	3c041000 	lui	a0,0x1000
10004570:	248475d4 	addiu	a0,a0,30164
10004574:	08000cb5 	j	100032d4 <printf>
10004578:	00000000 	sll	zero,zero,0x0
1000457c:	00001825 	or	v1,zero,zero
10004580:	1000fff2 	beqz	zero,1000454c <kbRespond_rm+0x30>
10004584:	00000000 	sll	zero,zero,0x0

10004588 <kbRespond_disable>:
10004588:	3c021021 	lui	v0,0x1021
1000458c:	a0448510 	sb	a0,-31472(v0)
10004590:	03e00008 	jr	ra
10004594:	00000000 	sll	zero,zero,0x0
	...

100045a0 <build_player1>:
100045a0:	3c0a1033 	lui	t2,0x1033
100045a4:	27bdffb8 	addiu	sp,sp,-72
100045a8:	254af9a4 	addiu	t2,t2,-1628
100045ac:	3c0b6666 	lui	t3,0x6666
100045b0:	8d430230 	lw	v1,560(t2)
100045b4:	afa70054 	sw	a3,84(sp)
100045b8:	afbf0044 	sw	ra,68(sp)
100045bc:	afb00040 	sw	s0,64(sp)
100045c0:	afa40048 	sw	a0,72(sp)
100045c4:	afa5004c 	sw	a1,76(sp)
100045c8:	afa60050 	sw	a2,80(sp)
100045cc:	24070014 	addiu	a3,zero,20
100045d0:	256b6667 	addiu	t3,t3,26215
100045d4:	10000003 	beqz	zero,100045e4 <build_player1+0x44>
100045d8:	00000000 	sll	zero,zero,0x0
100045dc:	10e00041 	beqz	a3,100046e4 <build_player1+0x144>
100045e0:	00000000 	sll	zero,zero,0x0
100045e4:	24660001 	addiu	a2,v1,1
100045e8:	00cb0018 	mult	a2,t3
100045ec:	000320c0 	sll	a0,v1,0x3
100045f0:	00004810 	mfhi	t1
100045f4:	00831823 	subu	v1,a0,v1
100045f8:	00032080 	sll	a0,v1,0x2
100045fc:	000910c3 	sra	v0,t1,0x3
10004600:	00062fc3 	sra	a1,a2,0x1f
10004604:	00451823 	subu	v1,v0,a1
10004608:	01441021 	addu	v0,t2,a0
1000460c:	90450001 	lbu	a1,1(v0)
10004610:	00032080 	sll	a0,v1,0x2
10004614:	00831821 	addu	v1,a0,v1
10004618:	00052600 	sll	a0,a1,0x18
1000461c:	00031880 	sll	v1,v1,0x2
10004620:	00042603 	sra	a0,a0,0x18
10004624:	24e7ffff 	addiu	a3,a3,-1
10004628:	00c31823 	subu	v1,a2,v1
1000462c:	1480ffeb 	bnez	a0,100045dc <build_player1+0x3c>
10004630:	00000000 	sll	zero,zero,0x0
10004634:	8fae0048 	lw	t6,72(sp)
10004638:	8fad004c 	lw	t5,76(sp)
1000463c:	8fac0050 	lw	t4,80(sp)
10004640:	8fab0054 	lw	t3,84(sp)
10004644:	8fa90058 	lw	t1,88(sp)
10004648:	00408025 	or	s0,v0,zero
1000464c:	24040050 	addiu	a0,zero,80
10004650:	24020001 	addiu	v0,zero,1
10004654:	a2020001 	sb	v0,1(s0)
10004658:	a2040000 	sb	a0,0(s0)
1000465c:	a2020001 	sb	v0,1(s0)
10004660:	ae0e0004 	sw	t6,4(s0)
10004664:	ae0d0008 	sw	t5,8(s0)
10004668:	ae0c000c 	sw	t4,12(s0)
1000466c:	ae0b0010 	sw	t3,16(s0)
10004670:	ae090014 	sw	t1,20(s0)
10004674:	8e080004 	lw	t0,4(s0)
10004678:	a3a20028 	sb	v0,40(sp)
1000467c:	8e020008 	lw	v0,8(s0)
10004680:	8fa40028 	lw	a0,40(sp)
10004684:	8e070010 	lw	a3,16(s0)
10004688:	afa2001c 	sw	v0,28(sp)
1000468c:	00402825 	or	a1,v0,zero
10004690:	24020002 	addiu	v0,zero,2
10004694:	afa40010 	sw	a0,16(sp)
10004698:	afae002c 	sw	t6,44(sp)
1000469c:	afad0030 	sw	t5,48(sp)
100046a0:	afac0034 	sw	t4,52(sp)
100046a4:	afab0038 	sw	t3,56(sp)
100046a8:	afa9003c 	sw	t1,60(sp)
100046ac:	afa80018 	sw	t0,24(sp)
100046b0:	afa20020 	sw	v0,32(sp)
100046b4:	01002025 	or	a0,t0,zero
100046b8:	24060002 	addiu	a2,zero,2
100046bc:	ad430230 	sw	v1,560(t2)
100046c0:	0c000138 	jal	100004e0 <build_hp>
100046c4:	00000000 	sll	zero,zero,0x0
100046c8:	ae020018 	sw	v0,24(s0)
100046cc:	8fbf0044 	lw	ra,68(sp)
100046d0:	02001025 	or	v0,s0,zero
100046d4:	8fb00040 	lw	s0,64(sp)
100046d8:	27bd0048 	addiu	sp,sp,72
100046dc:	03e00008 	jr	ra
100046e0:	00000000 	sll	zero,zero,0x0
100046e4:	3c041000 	lui	a0,0x1000
100046e8:	248475f8 	addiu	a0,a0,30200
100046ec:	ad430230 	sw	v1,560(t2)
100046f0:	0c000cb5 	jal	100032d4 <printf>
100046f4:	00000000 	sll	zero,zero,0x0
100046f8:	8fbf0044 	lw	ra,68(sp)
100046fc:	00008025 	or	s0,zero,zero
10004700:	02001025 	or	v0,s0,zero
10004704:	8fb00040 	lw	s0,64(sp)
10004708:	27bd0048 	addiu	sp,sp,72
1000470c:	03e00008 	jr	ra
10004710:	00000000 	sll	zero,zero,0x0

10004714 <player1_delete>:
10004714:	27bdffe8 	addiu	sp,sp,-24
10004718:	afb00010 	sw	s0,16(sp)
1000471c:	afbf0014 	sw	ra,20(sp)
10004720:	00808025 	or	s0,a0,zero
10004724:	8c840018 	lw	a0,24(a0)
10004728:	0c000184 	jal	10000610 <hp_delete>
1000472c:	00000000 	sll	zero,zero,0x0
10004730:	a2000001 	sb	zero,1(s0)
10004734:	8fbf0014 	lw	ra,20(sp)
10004738:	8fb00010 	lw	s0,16(sp)
1000473c:	27bd0018 	addiu	sp,sp,24
10004740:	03e00008 	jr	ra
10004744:	00000000 	sll	zero,zero,0x0

10004748 <player1_draw>:
10004748:	27bdffa0 	addiu	sp,sp,-96
1000474c:	afb60050 	sw	s6,80(sp)
10004750:	afb40048 	sw	s4,72(sp)
10004754:	afb20040 	sw	s2,64(sp)
10004758:	afb00038 	sw	s0,56(sp)
1000475c:	afbf005c 	sw	ra,92(sp)
10004760:	afbe0058 	sw	s8,88(sp)
10004764:	afb70054 	sw	s7,84(sp)
10004768:	afb5004c 	sw	s5,76(sp)
1000476c:	afb30044 	sw	s3,68(sp)
10004770:	afb1003c 	sw	s1,60(sp)
10004774:	00808025 	or	s0,a0,zero
10004778:	8c840018 	lw	a0,24(a0)
1000477c:	0c000187 	jal	1000061c <hp_draw>
10004780:	00000000 	sll	zero,zero,0x0
10004784:	3c02100e 	lui	v0,0x100e
10004788:	8c526fa8 	lw	s2,28584(v0)
1000478c:	8e020004 	lw	v0,4(s0)
10004790:	8e560016 	lw	s6,22(s2)
10004794:	afa2002c 	sw	v0,44(sp)
10004798:	8e020008 	lw	v0,8(s0)
1000479c:	8e540012 	lw	s4,18(s2)
100047a0:	afa20030 	sw	v0,48(sp)
100047a4:	1ac00053 	blez	s6,100048f4 <player1_draw+0x1ac>
100047a8:	00000000 	sll	zero,zero,0x0
100047ac:	3c1e1021 	lui	s8,0x1021
100047b0:	0014a840 	sll	s5,s4,0x1
100047b4:	27c5a13c 	addiu	a1,s8,-24260
100047b8:	00141080 	sll	v0,s4,0x2
100047bc:	afa50034 	sw	a1,52(sp)
100047c0:	02b4a821 	addu	s5,s5,s4
100047c4:	26520036 	addiu	s2,s2,54
100047c8:	afa20028 	sw	v0,40(sp)
100047cc:	00009825 	or	s3,zero,zero
100047d0:	24100001 	addiu	s0,zero,1
100047d4:	8fa20028 	lw	v0,40(sp)
100047d8:	00a28821 	addu	s1,a1,v0
100047dc:	1a800027 	blez	s4,1000487c <player1_draw+0x134>
100047e0:	00000000 	sll	zero,zero,0x0
100047e4:	00a0b825 	or	s7,a1,zero
100047e8:	0240f025 	or	s8,s2,zero
100047ec:	1000000a 	beqz	zero,10004818 <player1_draw+0xd0>
100047f0:	00000000 	sll	zero,zero,0x0
100047f4:	a3a20013 	sb	v0,19(sp)
100047f8:	8fa40010 	lw	a0,16(sp)
100047fc:	26f70004 	addiu	s7,s7,4
10004800:	0c000550 	jal	10001540 <color_to_int>
10004804:	00000000 	sll	zero,zero,0x0
10004808:	aee2fffc 	sw	v0,-4(s7)
1000480c:	27de0003 	addiu	s8,s8,3
10004810:	12f1001a 	beq	s7,s1,1000487c <player1_draw+0x134>
10004814:	00000000 	sll	zero,zero,0x0
10004818:	93c40000 	lbu	a0,0(s8)
1000481c:	00001025 	or	v0,zero,zero
10004820:	a3a40010 	sb	a0,16(sp)
10004824:	93c40001 	lbu	a0,1(s8)
10004828:	a3a40011 	sb	a0,17(sp)
1000482c:	93c40002 	lbu	a0,2(s8)
10004830:	a3a40012 	sb	a0,18(sp)
10004834:	93a40010 	lbu	a0,16(sp)
10004838:	1604ffee 	bne	s0,a0,100047f4 <player1_draw+0xac>
1000483c:	00000000 	sll	zero,zero,0x0
10004840:	93a40011 	lbu	a0,17(sp)
10004844:	1604ffeb 	bne	s0,a0,100047f4 <player1_draw+0xac>
10004848:	00000000 	sll	zero,zero,0x0
1000484c:	93a20012 	lbu	v0,18(sp)
10004850:	26f70004 	addiu	s7,s7,4
10004854:	38420001 	xori	v0,v0,0x1
10004858:	2c420001 	sltiu	v0,v0,1
1000485c:	a3a20013 	sb	v0,19(sp)
10004860:	8fa40010 	lw	a0,16(sp)
10004864:	27de0003 	addiu	s8,s8,3
10004868:	0c000550 	jal	10001540 <color_to_int>
1000486c:	00000000 	sll	zero,zero,0x0
10004870:	aee2fffc 	sw	v0,-4(s7)
10004874:	16f1ffe8 	bne	s7,s1,10004818 <player1_draw+0xd0>
10004878:	00000000 	sll	zero,zero,0x0
1000487c:	26730001 	addiu	s3,s3,1
10004880:	02559021 	addu	s2,s2,s5
10004884:	02202825 	or	a1,s1,zero
10004888:	16d3ffd2 	bne	s6,s3,100047d4 <player1_draw+0x8c>
1000488c:	00000000 	sll	zero,zero,0x0
10004890:	8fa2002c 	lw	v0,44(sp)
10004894:	27a40010 	addiu	a0,sp,16
10004898:	afa20010 	sw	v0,16(sp)
1000489c:	8fa20030 	lw	v0,48(sp)
100048a0:	afb4001c 	sw	s4,28(sp)
100048a4:	afa20014 	sw	v0,20(sp)
100048a8:	8fa20034 	lw	v0,52(sp)
100048ac:	afb60020 	sw	s6,32(sp)
100048b0:	afa20018 	sw	v0,24(sp)
100048b4:	afa00024 	sw	zero,36(sp)
100048b8:	0c000e8c 	jal	10003a30 <fb_add>
100048bc:	00000000 	sll	zero,zero,0x0
100048c0:	8fbf005c 	lw	ra,92(sp)
100048c4:	8fbe0058 	lw	s8,88(sp)
100048c8:	8fb70054 	lw	s7,84(sp)
100048cc:	8fb60050 	lw	s6,80(sp)
100048d0:	8fb5004c 	lw	s5,76(sp)
100048d4:	8fb40048 	lw	s4,72(sp)
100048d8:	8fb30044 	lw	s3,68(sp)
100048dc:	8fb20040 	lw	s2,64(sp)
100048e0:	8fb1003c 	lw	s1,60(sp)
100048e4:	8fb00038 	lw	s0,56(sp)
100048e8:	27bd0060 	addiu	sp,sp,96
100048ec:	03e00008 	jr	ra
100048f0:	00000000 	sll	zero,zero,0x0
100048f4:	3c1e1021 	lui	s8,0x1021
100048f8:	27c2a13c 	addiu	v0,s8,-24260
100048fc:	afa20034 	sw	v0,52(sp)
10004900:	1000ffe3 	beqz	zero,10004890 <player1_draw+0x148>
10004904:	00000000 	sll	zero,zero,0x0

10004908 <player1_locate>:
10004908:	8c820004 	lw	v0,4(a0)
1000490c:	aca20000 	sw	v0,0(a1)
10004910:	8c830008 	lw	v1,8(a0)
10004914:	3c02100e 	lui	v0,0x100e
10004918:	8c426fa8 	lw	v0,28584(v0)
1000491c:	aca30004 	sw	v1,4(a1)
10004920:	8c430012 	lw	v1,18(v0)
10004924:	aca30008 	sw	v1,8(a1)
10004928:	8c420016 	lw	v0,22(v0)
1000492c:	aca2000c 	sw	v0,12(a1)
10004930:	03e00008 	jr	ra
10004934:	00000000 	sll	zero,zero,0x0

10004938 <player1_move>:
10004938:	8c830004 	lw	v1,4(a0)
1000493c:	00801025 	or	v0,a0,zero
10004940:	00651821 	addu	v1,v1,a1
10004944:	8c840018 	lw	a0,24(a0)
10004948:	ac430004 	sw	v1,4(v0)
1000494c:	8c430008 	lw	v1,8(v0)
10004950:	00661821 	addu	v1,v1,a2
10004954:	ac430008 	sw	v1,8(v0)
10004958:	080001ec 	j	100007b0 <hp_move>
1000495c:	00000000 	sll	zero,zero,0x0

10004960 <player1_answer>:
10004960:	2403002b 	addiu	v1,zero,43
10004964:	00801025 	or	v0,a0,zero
10004968:	10a3002b 	beq	a1,v1,10004a18 <player1_answer+0xb8>
1000496c:	00000000 	sll	zero,zero,0x0
10004970:	28a3002c 	slti	v1,a1,44
10004974:	1460001b 	bnez	v1,100049e4 <player1_answer+0x84>
10004978:	00000000 	sll	zero,zero,0x0
1000497c:	2403002c 	addiu	v1,zero,44
10004980:	10a3000e 	beq	a1,v1,100049bc <player1_answer+0x5c>
10004984:	00000000 	sll	zero,zero,0x0
10004988:	2403002d 	addiu	v1,zero,45
1000498c:	14a3002c 	bne	a1,v1,10004a40 <player1_answer+0xe0>
10004990:	00000000 	sll	zero,zero,0x0
10004994:	8c830004 	lw	v1,4(a0)
10004998:	8c840018 	lw	a0,24(a0)
1000499c:	2463000c 	addiu	v1,v1,12
100049a0:	ac430004 	sw	v1,4(v0)
100049a4:	8c430008 	lw	v1,8(v0)
100049a8:	00003025 	or	a2,zero,zero
100049ac:	ac430008 	sw	v1,8(v0)
100049b0:	2405000c 	addiu	a1,zero,12
100049b4:	080001ec 	j	100007b0 <hp_move>
100049b8:	00000000 	sll	zero,zero,0x0
100049bc:	8c830004 	lw	v1,4(a0)
100049c0:	8c840018 	lw	a0,24(a0)
100049c4:	ac430004 	sw	v1,4(v0)
100049c8:	8c430008 	lw	v1,8(v0)
100049cc:	2406000c 	addiu	a2,zero,12
100049d0:	2463000c 	addiu	v1,v1,12
100049d4:	ac430008 	sw	v1,8(v0)
100049d8:	00002825 	or	a1,zero,zero
100049dc:	080001ec 	j	100007b0 <hp_move>
100049e0:	00000000 	sll	zero,zero,0x0
100049e4:	2403001e 	addiu	v1,zero,30
100049e8:	14a30017 	bne	a1,v1,10004a48 <player1_answer+0xe8>
100049ec:	00000000 	sll	zero,zero,0x0
100049f0:	8c830004 	lw	v1,4(a0)
100049f4:	8c840018 	lw	a0,24(a0)
100049f8:	ac430004 	sw	v1,4(v0)
100049fc:	8c430008 	lw	v1,8(v0)
10004a00:	2406fff4 	addiu	a2,zero,-12
10004a04:	2463fff4 	addiu	v1,v1,-12
10004a08:	ac430008 	sw	v1,8(v0)
10004a0c:	00002825 	or	a1,zero,zero
10004a10:	080001ec 	j	100007b0 <hp_move>
10004a14:	00000000 	sll	zero,zero,0x0
10004a18:	8c830004 	lw	v1,4(a0)
10004a1c:	8c840018 	lw	a0,24(a0)
10004a20:	2463fff4 	addiu	v1,v1,-12
10004a24:	ac430004 	sw	v1,4(v0)
10004a28:	8c430008 	lw	v1,8(v0)
10004a2c:	00003025 	or	a2,zero,zero
10004a30:	ac430008 	sw	v1,8(v0)
10004a34:	2405fff4 	addiu	a1,zero,-12
10004a38:	080001ec 	j	100007b0 <hp_move>
10004a3c:	00000000 	sll	zero,zero,0x0
10004a40:	03e00008 	jr	ra
10004a44:	00000000 	sll	zero,zero,0x0
10004a48:	03e00008 	jr	ra
10004a4c:	00000000 	sll	zero,zero,0x0

10004a50 <player1_hurt>:
10004a50:	8c840018 	lw	a0,24(a0)
10004a54:	080001f4 	j	100007d0 <hp_decrease>
10004a58:	00000000 	sll	zero,zero,0x0

10004a5c <player1_isCrash>:
10004a5c:	8c820018 	lw	v0,24(a0)
10004a60:	8c420018 	lw	v0,24(v0)
10004a64:	28420001 	slti	v0,v0,1
10004a68:	03e00008 	jr	ra
10004a6c:	00000000 	sll	zero,zero,0x0

10004a70 <player1_get_attack>:
10004a70:	8c820014 	lw	v0,20(a0)
10004a74:	03e00008 	jr	ra
10004a78:	00000000 	sll	zero,zero,0x0

10004a7c <player1_set_attack>:
10004a7c:	ac850014 	sw	a1,20(a0)
10004a80:	03e00008 	jr	ra
10004a84:	00000000 	sll	zero,zero,0x0

10004a88 <player1_get_hp>:
10004a88:	8c820018 	lw	v0,24(a0)
10004a8c:	8c420018 	lw	v0,24(v0)
10004a90:	03e00008 	jr	ra
10004a94:	00000000 	sll	zero,zero,0x0
	...

10004aa0 <build_planeU>:
10004aa0:	3c0a1033 	lui	t2,0x1033
10004aa4:	27bdffb0 	addiu	sp,sp,-80
10004aa8:	254afbd8 	addiu	t2,t2,-1064
10004aac:	3c0b6666 	lui	t3,0x6666
10004ab0:	8d4302d0 	lw	v1,720(t2)
10004ab4:	afa7005c 	sw	a3,92(sp)
10004ab8:	afbf004c 	sw	ra,76(sp)
10004abc:	afb00048 	sw	s0,72(sp)
10004ac0:	afa40050 	sw	a0,80(sp)
10004ac4:	afa50054 	sw	a1,84(sp)
10004ac8:	afa60058 	sw	a2,88(sp)
10004acc:	24070014 	addiu	a3,zero,20
10004ad0:	256b6667 	addiu	t3,t3,26215
10004ad4:	10000003 	beqz	zero,10004ae4 <build_planeU+0x44>
10004ad8:	00000000 	sll	zero,zero,0x0
10004adc:	10e00045 	beqz	a3,10004bf4 <build_planeU+0x154>
10004ae0:	00000000 	sll	zero,zero,0x0
10004ae4:	24660001 	addiu	a2,v1,1
10004ae8:	00cb0018 	mult	a2,t3
10004aec:	000320c0 	sll	a0,v1,0x3
10004af0:	00004810 	mfhi	t1
10004af4:	00831821 	addu	v1,a0,v1
10004af8:	00032080 	sll	a0,v1,0x2
10004afc:	000910c3 	sra	v0,t1,0x3
10004b00:	00062fc3 	sra	a1,a2,0x1f
10004b04:	00451823 	subu	v1,v0,a1
10004b08:	01441021 	addu	v0,t2,a0
10004b0c:	90450001 	lbu	a1,1(v0)
10004b10:	00032080 	sll	a0,v1,0x2
10004b14:	00831821 	addu	v1,a0,v1
10004b18:	00052600 	sll	a0,a1,0x18
10004b1c:	00031880 	sll	v1,v1,0x2
10004b20:	00042603 	sra	a0,a0,0x18
10004b24:	24e7ffff 	addiu	a3,a3,-1
10004b28:	00c31823 	subu	v1,a2,v1
10004b2c:	1480ffeb 	bnez	a0,10004adc <build_planeU+0x3c>
10004b30:	00000000 	sll	zero,zero,0x0
10004b34:	8fae0050 	lw	t6,80(sp)
10004b38:	8fad0054 	lw	t5,84(sp)
10004b3c:	8fac0058 	lw	t4,88(sp)
10004b40:	8fab005c 	lw	t3,92(sp)
10004b44:	8fa90060 	lw	t1,96(sp)
10004b48:	8fa80064 	lw	t0,100(sp)
10004b4c:	8fa60068 	lw	a2,104(sp)
10004b50:	00408025 	or	s0,v0,zero
10004b54:	24040055 	addiu	a0,zero,85
10004b58:	24020001 	addiu	v0,zero,1
10004b5c:	a2020001 	sb	v0,1(s0)
10004b60:	a2040000 	sb	a0,0(s0)
10004b64:	a2020001 	sb	v0,1(s0)
10004b68:	ae0e0004 	sw	t6,4(s0)
10004b6c:	ae0d0008 	sw	t5,8(s0)
10004b70:	ae0c000c 	sw	t4,12(s0)
10004b74:	ae0b0010 	sw	t3,16(s0)
10004b78:	ae090014 	sw	t1,20(s0)
10004b7c:	ae080018 	sw	t0,24(s0)
10004b80:	ae06001c 	sw	a2,28(s0)
10004b84:	8e040004 	lw	a0,4(s0)
10004b88:	8e050008 	lw	a1,8(s0)
10004b8c:	a3a00044 	sb	zero,68(sp)
10004b90:	24020002 	addiu	v0,zero,2
10004b94:	8e070018 	lw	a3,24(s0)
10004b98:	afae0018 	sw	t6,24(sp)
10004b9c:	afad001c 	sw	t5,28(sp)
10004ba0:	afac0020 	sw	t4,32(sp)
10004ba4:	afab0024 	sw	t3,36(sp)
10004ba8:	afa90028 	sw	t1,40(sp)
10004bac:	afa8002c 	sw	t0,44(sp)
10004bb0:	afa60030 	sw	a2,48(sp)
10004bb4:	afa40034 	sw	a0,52(sp)
10004bb8:	afa50038 	sw	a1,56(sp)
10004bbc:	ad4302d0 	sw	v1,720(t2)
10004bc0:	afa2003c 	sw	v0,60(sp)
10004bc4:	8fa20044 	lw	v0,68(sp)
10004bc8:	24060002 	addiu	a2,zero,2
10004bcc:	afa20010 	sw	v0,16(sp)
10004bd0:	0c000138 	jal	100004e0 <build_hp>
10004bd4:	00000000 	sll	zero,zero,0x0
10004bd8:	ae020020 	sw	v0,32(s0)
10004bdc:	8fbf004c 	lw	ra,76(sp)
10004be0:	02001025 	or	v0,s0,zero
10004be4:	8fb00048 	lw	s0,72(sp)
10004be8:	27bd0050 	addiu	sp,sp,80
10004bec:	03e00008 	jr	ra
10004bf0:	00000000 	sll	zero,zero,0x0
10004bf4:	3c041000 	lui	a0,0x1000
10004bf8:	24847630 	addiu	a0,a0,30256
10004bfc:	ad4302d0 	sw	v1,720(t2)
10004c00:	0c000cb5 	jal	100032d4 <printf>
10004c04:	00000000 	sll	zero,zero,0x0
10004c08:	8fbf004c 	lw	ra,76(sp)
10004c0c:	00008025 	or	s0,zero,zero
10004c10:	02001025 	or	v0,s0,zero
10004c14:	8fb00048 	lw	s0,72(sp)
10004c18:	27bd0050 	addiu	sp,sp,80
10004c1c:	03e00008 	jr	ra
10004c20:	00000000 	sll	zero,zero,0x0

10004c24 <planeU_delete>:
10004c24:	27bdffe8 	addiu	sp,sp,-24
10004c28:	afb00010 	sw	s0,16(sp)
10004c2c:	afbf0014 	sw	ra,20(sp)
10004c30:	00808025 	or	s0,a0,zero
10004c34:	8c840020 	lw	a0,32(a0)
10004c38:	0c000184 	jal	10000610 <hp_delete>
10004c3c:	00000000 	sll	zero,zero,0x0
10004c40:	a2000001 	sb	zero,1(s0)
10004c44:	8fbf0014 	lw	ra,20(sp)
10004c48:	8fb00010 	lw	s0,16(sp)
10004c4c:	27bd0018 	addiu	sp,sp,24
10004c50:	03e00008 	jr	ra
10004c54:	00000000 	sll	zero,zero,0x0

10004c58 <planeU_draw>:
10004c58:	27bdffa8 	addiu	sp,sp,-88
10004c5c:	afb60048 	sw	s6,72(sp)
10004c60:	afb40040 	sw	s4,64(sp)
10004c64:	afb20038 	sw	s2,56(sp)
10004c68:	afbf0054 	sw	ra,84(sp)
10004c6c:	afbe0050 	sw	s8,80(sp)
10004c70:	afb7004c 	sw	s7,76(sp)
10004c74:	afb50044 	sw	s5,68(sp)
10004c78:	afb3003c 	sw	s3,60(sp)
10004c7c:	afb10034 	sw	s1,52(sp)
10004c80:	afb00030 	sw	s0,48(sp)
10004c84:	afa40058 	sw	a0,88(sp)
10004c88:	8c840020 	lw	a0,32(a0)
10004c8c:	0c000187 	jal	1000061c <hp_draw>
10004c90:	00000000 	sll	zero,zero,0x0
10004c94:	3c02100e 	lui	v0,0x100e
10004c98:	8c526fb0 	lw	s2,28592(v0)
10004c9c:	8e560016 	lw	s6,22(s2)
10004ca0:	8e540012 	lw	s4,18(s2)
10004ca4:	1ac0004b 	blez	s6,10004dd4 <planeU_draw+0x17c>
10004ca8:	00000000 	sll	zero,zero,0x0
10004cac:	3c021021 	lui	v0,0x1021
10004cb0:	2445a13c 	addiu	a1,v0,-24260
10004cb4:	0014a840 	sll	s5,s4,0x1
10004cb8:	00141080 	sll	v0,s4,0x2
10004cbc:	afa5002c 	sw	a1,44(sp)
10004cc0:	02b4a821 	addu	s5,s5,s4
10004cc4:	26520036 	addiu	s2,s2,54
10004cc8:	afa20028 	sw	v0,40(sp)
10004ccc:	00009825 	or	s3,zero,zero
10004cd0:	24100001 	addiu	s0,zero,1
10004cd4:	8fa20028 	lw	v0,40(sp)
10004cd8:	00a28821 	addu	s1,a1,v0
10004cdc:	1a800015 	blez	s4,10004d34 <planeU_draw+0xdc>
10004ce0:	00000000 	sll	zero,zero,0x0
10004ce4:	00a0b825 	or	s7,a1,zero
10004ce8:	0240f025 	or	s8,s2,zero
10004cec:	93c20000 	lbu	v0,0(s8)
10004cf0:	a3a20010 	sb	v0,16(sp)
10004cf4:	93c20001 	lbu	v0,1(s8)
10004cf8:	a3a20011 	sb	v0,17(sp)
10004cfc:	93c20002 	lbu	v0,2(s8)
10004d00:	a3a20012 	sb	v0,18(sp)
10004d04:	93a20010 	lbu	v0,16(sp)
10004d08:	12020029 	beq	s0,v0,10004db0 <planeU_draw+0x158>
10004d0c:	00000000 	sll	zero,zero,0x0
10004d10:	a3a00013 	sb	zero,19(sp)
10004d14:	8fa40010 	lw	a0,16(sp)
10004d18:	26f70004 	addiu	s7,s7,4
10004d1c:	0c000550 	jal	10001540 <color_to_int>
10004d20:	00000000 	sll	zero,zero,0x0
10004d24:	aee2fffc 	sw	v0,-4(s7)
10004d28:	27de0003 	addiu	s8,s8,3
10004d2c:	16f1ffef 	bne	s7,s1,10004cec <planeU_draw+0x94>
10004d30:	00000000 	sll	zero,zero,0x0
10004d34:	26730001 	addiu	s3,s3,1
10004d38:	02559021 	addu	s2,s2,s5
10004d3c:	02202825 	or	a1,s1,zero
10004d40:	16d3ffe4 	bne	s6,s3,10004cd4 <planeU_draw+0x7c>
10004d44:	00000000 	sll	zero,zero,0x0
10004d48:	8fa20058 	lw	v0,88(sp)
10004d4c:	27a40010 	addiu	a0,sp,16
10004d50:	8c430004 	lw	v1,4(v0)
10004d54:	8c420008 	lw	v0,8(v0)
10004d58:	afb4001c 	sw	s4,28(sp)
10004d5c:	afa20014 	sw	v0,20(sp)
10004d60:	8fa2002c 	lw	v0,44(sp)
10004d64:	afb60020 	sw	s6,32(sp)
10004d68:	afa30010 	sw	v1,16(sp)
10004d6c:	afa20018 	sw	v0,24(sp)
10004d70:	afa00024 	sw	zero,36(sp)
10004d74:	0c000e8c 	jal	10003a30 <fb_add>
10004d78:	00000000 	sll	zero,zero,0x0
10004d7c:	8fbf0054 	lw	ra,84(sp)
10004d80:	8fbe0050 	lw	s8,80(sp)
10004d84:	8fb7004c 	lw	s7,76(sp)
10004d88:	8fb60048 	lw	s6,72(sp)
10004d8c:	8fb50044 	lw	s5,68(sp)
10004d90:	8fb40040 	lw	s4,64(sp)
10004d94:	8fb3003c 	lw	s3,60(sp)
10004d98:	8fb20038 	lw	s2,56(sp)
10004d9c:	8fb10034 	lw	s1,52(sp)
10004da0:	8fb00030 	lw	s0,48(sp)
10004da4:	27bd0058 	addiu	sp,sp,88
10004da8:	03e00008 	jr	ra
10004dac:	00000000 	sll	zero,zero,0x0
10004db0:	93a20011 	lbu	v0,17(sp)
10004db4:	1602ffd6 	bne	s0,v0,10004d10 <planeU_draw+0xb8>
10004db8:	00000000 	sll	zero,zero,0x0
10004dbc:	93a20012 	lbu	v0,18(sp)
10004dc0:	1602ffd3 	bne	s0,v0,10004d10 <planeU_draw+0xb8>
10004dc4:	00000000 	sll	zero,zero,0x0
10004dc8:	a3b00013 	sb	s0,19(sp)
10004dcc:	1000ffd1 	beqz	zero,10004d14 <planeU_draw+0xbc>
10004dd0:	00000000 	sll	zero,zero,0x0
10004dd4:	3c021021 	lui	v0,0x1021
10004dd8:	2442a13c 	addiu	v0,v0,-24260
10004ddc:	afa2002c 	sw	v0,44(sp)
10004de0:	1000ffd9 	beqz	zero,10004d48 <planeU_draw+0xf0>
10004de4:	00000000 	sll	zero,zero,0x0

10004de8 <planeU_move>:
10004de8:	8c830004 	lw	v1,4(a0)
10004dec:	00801025 	or	v0,a0,zero
10004df0:	00651821 	addu	v1,v1,a1
10004df4:	8c840020 	lw	a0,32(a0)
10004df8:	ac430004 	sw	v1,4(v0)
10004dfc:	8c430008 	lw	v1,8(v0)
10004e00:	00661821 	addu	v1,v1,a2
10004e04:	ac430008 	sw	v1,8(v0)
10004e08:	080001ec 	j	100007b0 <hp_move>
10004e0c:	00000000 	sll	zero,zero,0x0

10004e10 <planeU_locate>:
10004e10:	8c820004 	lw	v0,4(a0)
10004e14:	aca20000 	sw	v0,0(a1)
10004e18:	8c830008 	lw	v1,8(a0)
10004e1c:	3c02100e 	lui	v0,0x100e
10004e20:	8c426fb0 	lw	v0,28592(v0)
10004e24:	aca30004 	sw	v1,4(a1)
10004e28:	8c430012 	lw	v1,18(v0)
10004e2c:	aca30008 	sw	v1,8(a1)
10004e30:	8c420016 	lw	v0,22(v0)
10004e34:	aca2000c 	sw	v0,12(a1)
10004e38:	03e00008 	jr	ra
10004e3c:	00000000 	sll	zero,zero,0x0

10004e40 <planeU_automove>:
10004e40:	8c85000c 	lw	a1,12(a0)
10004e44:	8c830004 	lw	v1,4(a0)
10004e48:	00801025 	or	v0,a0,zero
10004e4c:	00651821 	addu	v1,v1,a1
10004e50:	8c840020 	lw	a0,32(a0)
10004e54:	ac430004 	sw	v1,4(v0)
10004e58:	8c450010 	lw	a1,16(v0)
10004e5c:	8c430008 	lw	v1,8(v0)
10004e60:	00651821 	addu	v1,v1,a1
10004e64:	ac430008 	sw	v1,8(v0)
10004e68:	8c45000c 	lw	a1,12(v0)
10004e6c:	8c460010 	lw	a2,16(v0)
10004e70:	080001ec 	j	100007b0 <hp_move>
10004e74:	00000000 	sll	zero,zero,0x0

10004e78 <planeU_hurt>:
10004e78:	8c840020 	lw	a0,32(a0)
10004e7c:	080001f4 	j	100007d0 <hp_decrease>
10004e80:	00000000 	sll	zero,zero,0x0

10004e84 <planeU_isCrash>:
10004e84:	8c820020 	lw	v0,32(a0)
10004e88:	8c420018 	lw	v0,24(v0)
10004e8c:	28420001 	slti	v0,v0,1
10004e90:	03e00008 	jr	ra
10004e94:	00000000 	sll	zero,zero,0x0

10004e98 <planeU_get_attack>:
10004e98:	8c82001c 	lw	v0,28(a0)
10004e9c:	03e00008 	jr	ra
10004ea0:	00000000 	sll	zero,zero,0x0

10004ea4 <planeU_set_attack>:
10004ea4:	ac85001c 	sw	a1,28(a0)
10004ea8:	03e00008 	jr	ra
10004eac:	00000000 	sll	zero,zero,0x0

10004eb0 <planeU_get_hp>:
10004eb0:	8c820020 	lw	v0,32(a0)
10004eb4:	8c420018 	lw	v0,24(v0)
10004eb8:	03e00008 	jr	ra
10004ebc:	00000000 	sll	zero,zero,0x0

10004ec0 <build_planeI>:
10004ec0:	3c0a1033 	lui	t2,0x1033
10004ec4:	27bdffb0 	addiu	sp,sp,-80
10004ec8:	254afeac 	addiu	t2,t2,-340
10004ecc:	3c0b6666 	lui	t3,0x6666
10004ed0:	8d4302d0 	lw	v1,720(t2)
10004ed4:	afa7005c 	sw	a3,92(sp)
10004ed8:	afbf004c 	sw	ra,76(sp)
10004edc:	afb00048 	sw	s0,72(sp)
10004ee0:	afa40050 	sw	a0,80(sp)
10004ee4:	afa50054 	sw	a1,84(sp)
10004ee8:	afa60058 	sw	a2,88(sp)
10004eec:	24070014 	addiu	a3,zero,20
10004ef0:	256b6667 	addiu	t3,t3,26215
10004ef4:	10000003 	beqz	zero,10004f04 <build_planeI+0x44>
10004ef8:	00000000 	sll	zero,zero,0x0
10004efc:	10e00045 	beqz	a3,10005014 <build_planeI+0x154>
10004f00:	00000000 	sll	zero,zero,0x0
10004f04:	24660001 	addiu	a2,v1,1
10004f08:	00cb0018 	mult	a2,t3
10004f0c:	000320c0 	sll	a0,v1,0x3
10004f10:	00004810 	mfhi	t1
10004f14:	00831821 	addu	v1,a0,v1
10004f18:	00032080 	sll	a0,v1,0x2
10004f1c:	000910c3 	sra	v0,t1,0x3
10004f20:	00062fc3 	sra	a1,a2,0x1f
10004f24:	00451823 	subu	v1,v0,a1
10004f28:	01441021 	addu	v0,t2,a0
10004f2c:	90450001 	lbu	a1,1(v0)
10004f30:	00032080 	sll	a0,v1,0x2
10004f34:	00831821 	addu	v1,a0,v1
10004f38:	00052600 	sll	a0,a1,0x18
10004f3c:	00031880 	sll	v1,v1,0x2
10004f40:	00042603 	sra	a0,a0,0x18
10004f44:	24e7ffff 	addiu	a3,a3,-1
10004f48:	00c31823 	subu	v1,a2,v1
10004f4c:	1480ffeb 	bnez	a0,10004efc <build_planeI+0x3c>
10004f50:	00000000 	sll	zero,zero,0x0
10004f54:	8fae0050 	lw	t6,80(sp)
10004f58:	8fad0054 	lw	t5,84(sp)
10004f5c:	8fac0058 	lw	t4,88(sp)
10004f60:	8fab005c 	lw	t3,92(sp)
10004f64:	8fa90060 	lw	t1,96(sp)
10004f68:	8fa80064 	lw	t0,100(sp)
10004f6c:	8fa60068 	lw	a2,104(sp)
10004f70:	00408025 	or	s0,v0,zero
10004f74:	24040049 	addiu	a0,zero,73
10004f78:	24020001 	addiu	v0,zero,1
10004f7c:	a2020001 	sb	v0,1(s0)
10004f80:	a2040000 	sb	a0,0(s0)
10004f84:	a2020001 	sb	v0,1(s0)
10004f88:	ae0e0004 	sw	t6,4(s0)
10004f8c:	ae0d0008 	sw	t5,8(s0)
10004f90:	ae0c000c 	sw	t4,12(s0)
10004f94:	ae0b0010 	sw	t3,16(s0)
10004f98:	ae090014 	sw	t1,20(s0)
10004f9c:	ae080018 	sw	t0,24(s0)
10004fa0:	ae06001c 	sw	a2,28(s0)
10004fa4:	8e040004 	lw	a0,4(s0)
10004fa8:	8e050008 	lw	a1,8(s0)
10004fac:	a3a00044 	sb	zero,68(sp)
10004fb0:	24020002 	addiu	v0,zero,2
10004fb4:	8e070018 	lw	a3,24(s0)
10004fb8:	afae0018 	sw	t6,24(sp)
10004fbc:	afad001c 	sw	t5,28(sp)
10004fc0:	afac0020 	sw	t4,32(sp)
10004fc4:	afab0024 	sw	t3,36(sp)
10004fc8:	afa90028 	sw	t1,40(sp)
10004fcc:	afa8002c 	sw	t0,44(sp)
10004fd0:	afa60030 	sw	a2,48(sp)
10004fd4:	afa40034 	sw	a0,52(sp)
10004fd8:	afa50038 	sw	a1,56(sp)
10004fdc:	ad4302d0 	sw	v1,720(t2)
10004fe0:	afa2003c 	sw	v0,60(sp)
10004fe4:	8fa20044 	lw	v0,68(sp)
10004fe8:	24060002 	addiu	a2,zero,2
10004fec:	afa20010 	sw	v0,16(sp)
10004ff0:	0c000138 	jal	100004e0 <build_hp>
10004ff4:	00000000 	sll	zero,zero,0x0
10004ff8:	ae020020 	sw	v0,32(s0)
10004ffc:	8fbf004c 	lw	ra,76(sp)
10005000:	02001025 	or	v0,s0,zero
10005004:	8fb00048 	lw	s0,72(sp)
10005008:	27bd0050 	addiu	sp,sp,80
1000500c:	03e00008 	jr	ra
10005010:	00000000 	sll	zero,zero,0x0
10005014:	3c041000 	lui	a0,0x1000
10005018:	24847664 	addiu	a0,a0,30308
1000501c:	ad4302d0 	sw	v1,720(t2)
10005020:	0c000cb5 	jal	100032d4 <printf>
10005024:	00000000 	sll	zero,zero,0x0
10005028:	8fbf004c 	lw	ra,76(sp)
1000502c:	00008025 	or	s0,zero,zero
10005030:	02001025 	or	v0,s0,zero
10005034:	8fb00048 	lw	s0,72(sp)
10005038:	27bd0050 	addiu	sp,sp,80
1000503c:	03e00008 	jr	ra
10005040:	00000000 	sll	zero,zero,0x0

10005044 <planeI_delete>:
10005044:	27bdffe8 	addiu	sp,sp,-24
10005048:	afb00010 	sw	s0,16(sp)
1000504c:	afbf0014 	sw	ra,20(sp)
10005050:	00808025 	or	s0,a0,zero
10005054:	8c840020 	lw	a0,32(a0)
10005058:	0c000184 	jal	10000610 <hp_delete>
1000505c:	00000000 	sll	zero,zero,0x0
10005060:	a2000001 	sb	zero,1(s0)
10005064:	8fbf0014 	lw	ra,20(sp)
10005068:	8fb00010 	lw	s0,16(sp)
1000506c:	27bd0018 	addiu	sp,sp,24
10005070:	03e00008 	jr	ra
10005074:	00000000 	sll	zero,zero,0x0

10005078 <planeI_draw>:
10005078:	27bdffa8 	addiu	sp,sp,-88
1000507c:	afb60048 	sw	s6,72(sp)
10005080:	afb40040 	sw	s4,64(sp)
10005084:	afb20038 	sw	s2,56(sp)
10005088:	afbf0054 	sw	ra,84(sp)
1000508c:	afbe0050 	sw	s8,80(sp)
10005090:	afb7004c 	sw	s7,76(sp)
10005094:	afb50044 	sw	s5,68(sp)
10005098:	afb3003c 	sw	s3,60(sp)
1000509c:	afb10034 	sw	s1,52(sp)
100050a0:	afb00030 	sw	s0,48(sp)
100050a4:	afa40058 	sw	a0,88(sp)
100050a8:	8c840020 	lw	a0,32(a0)
100050ac:	0c000187 	jal	1000061c <hp_draw>
100050b0:	00000000 	sll	zero,zero,0x0
100050b4:	3c02100e 	lui	v0,0x100e
100050b8:	8c526fb8 	lw	s2,28600(v0)
100050bc:	8e560016 	lw	s6,22(s2)
100050c0:	8e540012 	lw	s4,18(s2)
100050c4:	1ac0004b 	blez	s6,100051f4 <planeI_draw+0x17c>
100050c8:	00000000 	sll	zero,zero,0x0
100050cc:	3c021021 	lui	v0,0x1021
100050d0:	2445a13c 	addiu	a1,v0,-24260
100050d4:	0014a840 	sll	s5,s4,0x1
100050d8:	00141080 	sll	v0,s4,0x2
100050dc:	afa5002c 	sw	a1,44(sp)
100050e0:	02b4a821 	addu	s5,s5,s4
100050e4:	26520036 	addiu	s2,s2,54
100050e8:	afa20028 	sw	v0,40(sp)
100050ec:	00009825 	or	s3,zero,zero
100050f0:	24100001 	addiu	s0,zero,1
100050f4:	8fa20028 	lw	v0,40(sp)
100050f8:	00a28821 	addu	s1,a1,v0
100050fc:	1a800015 	blez	s4,10005154 <planeI_draw+0xdc>
10005100:	00000000 	sll	zero,zero,0x0
10005104:	00a0b825 	or	s7,a1,zero
10005108:	0240f025 	or	s8,s2,zero
1000510c:	93c20000 	lbu	v0,0(s8)
10005110:	a3a20010 	sb	v0,16(sp)
10005114:	93c20001 	lbu	v0,1(s8)
10005118:	a3a20011 	sb	v0,17(sp)
1000511c:	93c20002 	lbu	v0,2(s8)
10005120:	a3a20012 	sb	v0,18(sp)
10005124:	93a20010 	lbu	v0,16(sp)
10005128:	12020029 	beq	s0,v0,100051d0 <planeI_draw+0x158>
1000512c:	00000000 	sll	zero,zero,0x0
10005130:	a3a00013 	sb	zero,19(sp)
10005134:	8fa40010 	lw	a0,16(sp)
10005138:	26f70004 	addiu	s7,s7,4
1000513c:	0c000550 	jal	10001540 <color_to_int>
10005140:	00000000 	sll	zero,zero,0x0
10005144:	aee2fffc 	sw	v0,-4(s7)
10005148:	27de0003 	addiu	s8,s8,3
1000514c:	16f1ffef 	bne	s7,s1,1000510c <planeI_draw+0x94>
10005150:	00000000 	sll	zero,zero,0x0
10005154:	26730001 	addiu	s3,s3,1
10005158:	02559021 	addu	s2,s2,s5
1000515c:	02202825 	or	a1,s1,zero
10005160:	16d3ffe4 	bne	s6,s3,100050f4 <planeI_draw+0x7c>
10005164:	00000000 	sll	zero,zero,0x0
10005168:	8fa20058 	lw	v0,88(sp)
1000516c:	27a40010 	addiu	a0,sp,16
10005170:	8c430004 	lw	v1,4(v0)
10005174:	8c420008 	lw	v0,8(v0)
10005178:	afb4001c 	sw	s4,28(sp)
1000517c:	afa20014 	sw	v0,20(sp)
10005180:	8fa2002c 	lw	v0,44(sp)
10005184:	afb60020 	sw	s6,32(sp)
10005188:	afa30010 	sw	v1,16(sp)
1000518c:	afa20018 	sw	v0,24(sp)
10005190:	afa00024 	sw	zero,36(sp)
10005194:	0c000e8c 	jal	10003a30 <fb_add>
10005198:	00000000 	sll	zero,zero,0x0
1000519c:	8fbf0054 	lw	ra,84(sp)
100051a0:	8fbe0050 	lw	s8,80(sp)
100051a4:	8fb7004c 	lw	s7,76(sp)
100051a8:	8fb60048 	lw	s6,72(sp)
100051ac:	8fb50044 	lw	s5,68(sp)
100051b0:	8fb40040 	lw	s4,64(sp)
100051b4:	8fb3003c 	lw	s3,60(sp)
100051b8:	8fb20038 	lw	s2,56(sp)
100051bc:	8fb10034 	lw	s1,52(sp)
100051c0:	8fb00030 	lw	s0,48(sp)
100051c4:	27bd0058 	addiu	sp,sp,88
100051c8:	03e00008 	jr	ra
100051cc:	00000000 	sll	zero,zero,0x0
100051d0:	93a20011 	lbu	v0,17(sp)
100051d4:	1602ffd6 	bne	s0,v0,10005130 <planeI_draw+0xb8>
100051d8:	00000000 	sll	zero,zero,0x0
100051dc:	93a20012 	lbu	v0,18(sp)
100051e0:	1602ffd3 	bne	s0,v0,10005130 <planeI_draw+0xb8>
100051e4:	00000000 	sll	zero,zero,0x0
100051e8:	a3b00013 	sb	s0,19(sp)
100051ec:	1000ffd1 	beqz	zero,10005134 <planeI_draw+0xbc>
100051f0:	00000000 	sll	zero,zero,0x0
100051f4:	3c021021 	lui	v0,0x1021
100051f8:	2442a13c 	addiu	v0,v0,-24260
100051fc:	afa2002c 	sw	v0,44(sp)
10005200:	1000ffd9 	beqz	zero,10005168 <planeI_draw+0xf0>
10005204:	00000000 	sll	zero,zero,0x0

10005208 <planeI_move>:
10005208:	8c830004 	lw	v1,4(a0)
1000520c:	00801025 	or	v0,a0,zero
10005210:	00651821 	addu	v1,v1,a1
10005214:	8c840020 	lw	a0,32(a0)
10005218:	ac430004 	sw	v1,4(v0)
1000521c:	8c430008 	lw	v1,8(v0)
10005220:	00661821 	addu	v1,v1,a2
10005224:	ac430008 	sw	v1,8(v0)
10005228:	080001ec 	j	100007b0 <hp_move>
1000522c:	00000000 	sll	zero,zero,0x0

10005230 <planeI_locate>:
10005230:	8c820004 	lw	v0,4(a0)
10005234:	aca20000 	sw	v0,0(a1)
10005238:	8c830008 	lw	v1,8(a0)
1000523c:	3c02100e 	lui	v0,0x100e
10005240:	8c426fb8 	lw	v0,28600(v0)
10005244:	aca30004 	sw	v1,4(a1)
10005248:	8c430012 	lw	v1,18(v0)
1000524c:	aca30008 	sw	v1,8(a1)
10005250:	8c420016 	lw	v0,22(v0)
10005254:	aca2000c 	sw	v0,12(a1)
10005258:	03e00008 	jr	ra
1000525c:	00000000 	sll	zero,zero,0x0

10005260 <planeI_automove>:
10005260:	8c85000c 	lw	a1,12(a0)
10005264:	8c830004 	lw	v1,4(a0)
10005268:	00801025 	or	v0,a0,zero
1000526c:	00651821 	addu	v1,v1,a1
10005270:	8c840020 	lw	a0,32(a0)
10005274:	ac430004 	sw	v1,4(v0)
10005278:	8c450010 	lw	a1,16(v0)
1000527c:	8c430008 	lw	v1,8(v0)
10005280:	00651821 	addu	v1,v1,a1
10005284:	ac430008 	sw	v1,8(v0)
10005288:	8c45000c 	lw	a1,12(v0)
1000528c:	8c460010 	lw	a2,16(v0)
10005290:	080001ec 	j	100007b0 <hp_move>
10005294:	00000000 	sll	zero,zero,0x0

10005298 <planeI_hurt>:
10005298:	8c840020 	lw	a0,32(a0)
1000529c:	080001f4 	j	100007d0 <hp_decrease>
100052a0:	00000000 	sll	zero,zero,0x0

100052a4 <planeI_isCrash>:
100052a4:	8c820020 	lw	v0,32(a0)
100052a8:	8c420018 	lw	v0,24(v0)
100052ac:	28420001 	slti	v0,v0,1
100052b0:	03e00008 	jr	ra
100052b4:	00000000 	sll	zero,zero,0x0

100052b8 <planeI_get_attack>:
100052b8:	8c82001c 	lw	v0,28(a0)
100052bc:	03e00008 	jr	ra
100052c0:	00000000 	sll	zero,zero,0x0

100052c4 <planeI_set_attack>:
100052c4:	ac85001c 	sw	a1,28(a0)
100052c8:	03e00008 	jr	ra
100052cc:	00000000 	sll	zero,zero,0x0

100052d0 <planeI_get_hp>:
100052d0:	8c820020 	lw	v0,32(a0)
100052d4:	8c420018 	lw	v0,24(v0)
100052d8:	03e00008 	jr	ra
100052dc:	00000000 	sll	zero,zero,0x0

100052e0 <is_inside_collision>:
100052e0:	8c830000 	lw	v1,0(a0)
100052e4:	8ca60000 	lw	a2,0(a1)
100052e8:	8c8a0004 	lw	t2,4(a0)
100052ec:	8c890008 	lw	t1,8(a0)
100052f0:	8c88000c 	lw	t0,12(a0)
100052f4:	8cab0004 	lw	t3,4(a1)
100052f8:	8ca20008 	lw	v0,8(a1)
100052fc:	8ca7000c 	lw	a3,12(a1)
10005300:	00c3282a 	slt	a1,a2,v1
10005304:	00694821 	addu	t1,v1,t1
10005308:	01484021 	addu	t0,t2,t0
1000530c:	00c22021 	addu	a0,a2,v0
10005310:	01673821 	addu	a3,t3,a3
10005314:	14a00020 	bnez	a1,10005398 <is_inside_collision+0xb8>
10005318:	00000000 	sll	zero,zero,0x0
1000531c:	0126102a 	slt	v0,t1,a2
10005320:	14400019 	bnez	v0,10005388 <is_inside_collision+0xa8>
10005324:	00000000 	sll	zero,zero,0x0
10005328:	016a102a 	slt	v0,t3,t2
1000532c:	14400016 	bnez	v0,10005388 <is_inside_collision+0xa8>
10005330:	00000000 	sll	zero,zero,0x0
10005334:	010b102a 	slt	v0,t0,t3
10005338:	14400013 	bnez	v0,10005388 <is_inside_collision+0xa8>
1000533c:	00000000 	sll	zero,zero,0x0
10005340:	0083102a 	slt	v0,a0,v1
10005344:	1440000d 	bnez	v0,1000537c <is_inside_collision+0x9c>
10005348:	00000000 	sll	zero,zero,0x0
1000534c:	0124102a 	slt	v0,t1,a0
10005350:	14400007 	bnez	v0,10005370 <is_inside_collision+0x90>
10005354:	00000000 	sll	zero,zero,0x0
10005358:	00ea102a 	slt	v0,a3,t2
1000535c:	14400004 	bnez	v0,10005370 <is_inside_collision+0x90>
10005360:	00000000 	sll	zero,zero,0x0
10005364:	0107102a 	slt	v0,t0,a3
10005368:	10400021 	beqz	v0,100053f0 <is_inside_collision+0x110>
1000536c:	00000000 	sll	zero,zero,0x0
10005370:	0066182a 	slt	v1,v1,a2
10005374:	1060000b 	beqz	v1,100053a4 <is_inside_collision+0xc4>
10005378:	00000000 	sll	zero,zero,0x0
1000537c:	00001025 	or	v0,zero,zero
10005380:	03e00008 	jr	ra
10005384:	00000000 	sll	zero,zero,0x0
10005388:	0066282a 	slt	a1,v1,a2
1000538c:	00001025 	or	v0,zero,zero
10005390:	14a0fffb 	bnez	a1,10005380 <is_inside_collision+0xa0>
10005394:	00000000 	sll	zero,zero,0x0
10005398:	0083182a 	slt	v1,a0,v1
1000539c:	1460fff7 	bnez	v1,1000537c <is_inside_collision+0x9c>
100053a0:	00000000 	sll	zero,zero,0x0
100053a4:	014b102a 	slt	v0,t2,t3
100053a8:	1440fff4 	bnez	v0,1000537c <is_inside_collision+0x9c>
100053ac:	00000000 	sll	zero,zero,0x0
100053b0:	00ea502a 	slt	t2,a3,t2
100053b4:	1540fff1 	bnez	t2,1000537c <is_inside_collision+0x9c>
100053b8:	00000000 	sll	zero,zero,0x0
100053bc:	0126302a 	slt	a2,t1,a2
100053c0:	14c0ffee 	bnez	a2,1000537c <is_inside_collision+0x9c>
100053c4:	00000000 	sll	zero,zero,0x0
100053c8:	0089102a 	slt	v0,a0,t1
100053cc:	1440ffeb 	bnez	v0,1000537c <is_inside_collision+0x9c>
100053d0:	00000000 	sll	zero,zero,0x0
100053d4:	010b582a 	slt	t3,t0,t3
100053d8:	1560ffe8 	bnez	t3,1000537c <is_inside_collision+0x9c>
100053dc:	00000000 	sll	zero,zero,0x0
100053e0:	00e8102a 	slt	v0,a3,t0
100053e4:	38420001 	xori	v0,v0,0x1
100053e8:	03e00008 	jr	ra
100053ec:	00000000 	sll	zero,zero,0x0
100053f0:	24020001 	addiu	v0,zero,1
100053f4:	03e00008 	jr	ra
100053f8:	00000000 	sll	zero,zero,0x0

100053fc <is_outside_collision>:
100053fc:	8c870000 	lw	a3,0(a0)
10005400:	8cab0000 	lw	t3,0(a1)
10005404:	8c86000c 	lw	a2,12(a0)
10005408:	8c8d0004 	lw	t5,4(a0)
1000540c:	8c880008 	lw	t0,8(a0)
10005410:	8caa0004 	lw	t2,4(a1)
10005414:	8ca20008 	lw	v0,8(a1)
10005418:	8ca3000c 	lw	v1,12(a1)
1000541c:	0167202a 	slt	a0,t3,a3
10005420:	01a66021 	addu	t4,t5,a2
10005424:	00e84021 	addu	t0,a3,t0
10005428:	01621021 	addu	v0,t3,v0
1000542c:	01433021 	addu	a2,t2,v1
10005430:	1480000d 	bnez	a0,10005468 <is_outside_collision+0x6c>
10005434:	00000000 	sll	zero,zero,0x0
10005438:	010b182a 	slt	v1,t0,t3
1000543c:	1460002a 	bnez	v1,100054e8 <is_outside_collision+0xec>
10005440:	00000000 	sll	zero,zero,0x0
10005444:	014d282a 	slt	a1,t2,t5
10005448:	14a00046 	bnez	a1,10005564 <is_outside_collision+0x168>
1000544c:	00000000 	sll	zero,zero,0x0
10005450:	018a282a 	slt	a1,t4,t2
10005454:	14a00043 	bnez	a1,10005564 <is_outside_collision+0x168>
10005458:	00000000 	sll	zero,zero,0x0
1000545c:	24020001 	addiu	v0,zero,1
10005460:	03e00008 	jr	ra
10005464:	00000000 	sll	zero,zero,0x0
10005468:	0047282a 	slt	a1,v0,a3
1000546c:	10a00021 	beqz	a1,100054f4 <is_outside_collision+0xf8>
10005470:	00000000 	sll	zero,zero,0x0
10005474:	010b182a 	slt	v1,t0,t3
10005478:	14600041 	bnez	v1,10005580 <is_outside_collision+0x184>
1000547c:	00000000 	sll	zero,zero,0x0
10005480:	0048202a 	slt	a0,v0,t0
10005484:	10800066 	beqz	a0,10005620 <is_outside_collision+0x224>
10005488:	00000000 	sll	zero,zero,0x0
1000548c:	00eb382a 	slt	a3,a3,t3
10005490:	14e0003e 	bnez	a3,1000558c <is_outside_collision+0x190>
10005494:	00000000 	sll	zero,zero,0x0
10005498:	14a00007 	bnez	a1,100054b8 <is_outside_collision+0xbc>
1000549c:	00000000 	sll	zero,zero,0x0
100054a0:	018a202a 	slt	a0,t4,t2
100054a4:	14800004 	bnez	a0,100054b8 <is_outside_collision+0xbc>
100054a8:	00000000 	sll	zero,zero,0x0
100054ac:	00cc202a 	slt	a0,a2,t4
100054b0:	1080ffea 	beqz	a0,1000545c <is_outside_collision+0x60>
100054b4:	00000000 	sll	zero,zero,0x0
100054b8:	14600034 	bnez	v1,1000558c <is_outside_collision+0x190>
100054bc:	00000000 	sll	zero,zero,0x0
100054c0:	0048402a 	slt	t0,v0,t0
100054c4:	15000031 	bnez	t0,1000558c <is_outside_collision+0x190>
100054c8:	00000000 	sll	zero,zero,0x0
100054cc:	018a182a 	slt	v1,t4,t2
100054d0:	1460002e 	bnez	v1,1000558c <is_outside_collision+0x190>
100054d4:	00000000 	sll	zero,zero,0x0
100054d8:	00cc102a 	slt	v0,a2,t4
100054dc:	38420001 	xori	v0,v0,0x1
100054e0:	03e00008 	jr	ra
100054e4:	00000000 	sll	zero,zero,0x0
100054e8:	0047282a 	slt	a1,v0,a3
100054ec:	14a00022 	bnez	a1,10005578 <is_outside_collision+0x17c>
100054f0:	00000000 	sll	zero,zero,0x0
100054f4:	0102182a 	slt	v1,t0,v0
100054f8:	14600027 	bnez	v1,10005598 <is_outside_collision+0x19c>
100054fc:	00000000 	sll	zero,zero,0x0
10005500:	014d182a 	slt	v1,t2,t5
10005504:	1060004e 	beqz	v1,10005640 <is_outside_collision+0x244>
10005508:	00000000 	sll	zero,zero,0x0
1000550c:	1480005a 	bnez	a0,10005678 <is_outside_collision+0x27c>
10005510:	00000000 	sll	zero,zero,0x0
10005514:	010b182a 	slt	v1,t0,t3
10005518:	10600031 	beqz	v1,100055e0 <is_outside_collision+0x1e4>
1000551c:	00000000 	sll	zero,zero,0x0
10005520:	00cd202a 	slt	a0,a2,t5
10005524:	14800004 	bnez	a0,10005538 <is_outside_collision+0x13c>
10005528:	00000000 	sll	zero,zero,0x0
1000552c:	0186182a 	slt	v1,t4,a2
10005530:	1060ffca 	beqz	v1,1000545c <is_outside_collision+0x60>
10005534:	00000000 	sll	zero,zero,0x0
10005538:	00eb182a 	slt	v1,a3,t3
1000553c:	14600032 	bnez	v1,10005608 <is_outside_collision+0x20c>
10005540:	00000000 	sll	zero,zero,0x0
10005544:	01aa202a 	slt	a0,t5,t2
10005548:	1480ffca 	bnez	a0,10005474 <is_outside_collision+0x78>
1000554c:	00000000 	sll	zero,zero,0x0
10005550:	00cd182a 	slt	v1,a2,t5
10005554:	1460ffc7 	bnez	v1,10005474 <is_outside_collision+0x78>
10005558:	00000000 	sll	zero,zero,0x0
1000555c:	1000ffbf 	beqz	zero,1000545c <is_outside_collision+0x60>
10005560:	00000000 	sll	zero,zero,0x0
10005564:	0047282a 	slt	a1,v0,a3
10005568:	10a0ffe2 	beqz	a1,100054f4 <is_outside_collision+0xf8>
1000556c:	00000000 	sll	zero,zero,0x0
10005570:	1480ffc1 	bnez	a0,10005478 <is_outside_collision+0x7c>
10005574:	00000000 	sll	zero,zero,0x0
10005578:	10600019 	beqz	v1,100055e0 <is_outside_collision+0x1e4>
1000557c:	00000000 	sll	zero,zero,0x0
10005580:	00eb382a 	slt	a3,a3,t3
10005584:	10e00038 	beqz	a3,10005668 <is_outside_collision+0x26c>
10005588:	00000000 	sll	zero,zero,0x0
1000558c:	00001025 	or	v0,zero,zero
10005590:	03e00008 	jr	ra
10005594:	00000000 	sll	zero,zero,0x0
10005598:	1480ffea 	bnez	a0,10005544 <is_outside_collision+0x148>
1000559c:	00000000 	sll	zero,zero,0x0
100055a0:	010b182a 	slt	v1,t0,t3
100055a4:	1060000e 	beqz	v1,100055e0 <is_outside_collision+0x1e4>
100055a8:	00000000 	sll	zero,zero,0x0
100055ac:	00eb202a 	slt	a0,a3,t3
100055b0:	1080ffe4 	beqz	a0,10005544 <is_outside_collision+0x148>
100055b4:	00000000 	sll	zero,zero,0x0
100055b8:	1460fff4 	bnez	v1,1000558c <is_outside_collision+0x190>
100055bc:	00000000 	sll	zero,zero,0x0
100055c0:	01aa202a 	slt	a0,t5,t2
100055c4:	1480ffc1 	bnez	a0,100054cc <is_outside_collision+0xd0>
100055c8:	00000000 	sll	zero,zero,0x0
100055cc:	00cd682a 	slt	t5,a2,t5
100055d0:	15a00016 	bnez	t5,1000562c <is_outside_collision+0x230>
100055d4:	00000000 	sll	zero,zero,0x0
100055d8:	1000ffa0 	beqz	zero,1000545c <is_outside_collision+0x60>
100055dc:	00000000 	sll	zero,zero,0x0
100055e0:	00cd202a 	slt	a0,a2,t5
100055e4:	1080001b 	beqz	a0,10005654 <is_outside_collision+0x258>
100055e8:	00000000 	sll	zero,zero,0x0
100055ec:	14a0ffa4 	bnez	a1,10005480 <is_outside_collision+0x84>
100055f0:	00000000 	sll	zero,zero,0x0
100055f4:	0102482a 	slt	t1,t0,v0
100055f8:	1120ffca 	beqz	t1,10005524 <is_outside_collision+0x128>
100055fc:	00000000 	sll	zero,zero,0x0
10005600:	1000ffea 	beqz	zero,100055ac <is_outside_collision+0x1b0>
10005604:	00000000 	sll	zero,zero,0x0
10005608:	010b182a 	slt	v1,t0,t3
1000560c:	1460ffdf 	bnez	v1,1000558c <is_outside_collision+0x190>
10005610:	00000000 	sll	zero,zero,0x0
10005614:	0048202a 	slt	a0,v0,t0
10005618:	1480ffdc 	bnez	a0,1000558c <is_outside_collision+0x190>
1000561c:	00000000 	sll	zero,zero,0x0
10005620:	01aa202a 	slt	a0,t5,t2
10005624:	1080ffe9 	beqz	a0,100055cc <is_outside_collision+0x1d0>
10005628:	00000000 	sll	zero,zero,0x0
1000562c:	00eb382a 	slt	a3,a3,t3
10005630:	10e0ff99 	beqz	a3,10005498 <is_outside_collision+0x9c>
10005634:	00000000 	sll	zero,zero,0x0
10005638:	1000ffa4 	beqz	zero,100054cc <is_outside_collision+0xd0>
1000563c:	00000000 	sll	zero,zero,0x0
10005640:	018a182a 	slt	v1,t4,t2
10005644:	1460ffb1 	bnez	v1,1000550c <is_outside_collision+0x110>
10005648:	00000000 	sll	zero,zero,0x0
1000564c:	1000ff83 	beqz	zero,1000545c <is_outside_collision+0x60>
10005650:	00000000 	sll	zero,zero,0x0
10005654:	0186482a 	slt	t1,t4,a2
10005658:	1520ffe4 	bnez	t1,100055ec <is_outside_collision+0x1f0>
1000565c:	00000000 	sll	zero,zero,0x0
10005660:	1000ff7e 	beqz	zero,1000545c <is_outside_collision+0x60>
10005664:	00000000 	sll	zero,zero,0x0
10005668:	10a0ff8d 	beqz	a1,100054a0 <is_outside_collision+0xa4>
1000566c:	00000000 	sll	zero,zero,0x0
10005670:	1000ffc6 	beqz	zero,1000558c <is_outside_collision+0x190>
10005674:	00000000 	sll	zero,zero,0x0
10005678:	00cd182a 	slt	v1,a2,t5
1000567c:	1060ffab 	beqz	v1,1000552c <is_outside_collision+0x130>
10005680:	00000000 	sll	zero,zero,0x0
10005684:	1000ff7b 	beqz	zero,10005474 <is_outside_collision+0x78>
10005688:	00000000 	sll	zero,zero,0x0

1000568c <__add.constprop.5>:
1000568c:	27bdffe8 	addiu	sp,sp,-24
10005690:	afb00010 	sw	s0,16(sp)
10005694:	afbf0014 	sw	ra,20(sp)
10005698:	00808025 	or	s0,a0,zero
1000569c:	0c0004c6 	jal	10001318 <screen_add>
100056a0:	00000000 	sll	zero,zero,0x0
100056a4:	3c051033 	lui	a1,0x1033
100056a8:	24a50180 	addiu	a1,a1,384
100056ac:	8ca20050 	lw	v0,80(a1)
100056b0:	2448ffff 	addiu	t0,v0,-1
100056b4:	05010002 	bgez	t0,100056c0 <__add.constprop.5+0x34>
100056b8:	00000000 	sll	zero,zero,0x0
100056bc:	24480013 	addiu	t0,v0,19
100056c0:	00022080 	sll	a0,v0,0x2
100056c4:	00a41821 	addu	v1,a1,a0
100056c8:	8c630000 	lw	v1,0(v1)
100056cc:	24060001 	addiu	a2,zero,1
100056d0:	90630001 	lbu	v1,1(v1)
100056d4:	00031e00 	sll	v1,v1,0x18
100056d8:	00031e03 	sra	v1,v1,0x18
100056dc:	1466001d 	bne	v1,a2,10005754 <__add.constprop.5+0xc8>
100056e0:	00000000 	sll	zero,zero,0x0
100056e4:	10480024 	beq	v0,t0,10005778 <__add.constprop.5+0xec>
100056e8:	00000000 	sll	zero,zero,0x0
100056ec:	3c096666 	lui	t1,0x6666
100056f0:	25296667 	addiu	t1,t1,26215
100056f4:	240a0001 	addiu	t2,zero,1
100056f8:	10000003 	beqz	zero,10005708 <__add.constprop.5+0x7c>
100056fc:	00000000 	sll	zero,zero,0x0
10005700:	1048001d 	beq	v0,t0,10005778 <__add.constprop.5+0xec>
10005704:	00000000 	sll	zero,zero,0x0
10005708:	24440001 	addiu	a0,v0,1
1000570c:	00890018 	mult	a0,t1
10005710:	00041fc3 	sra	v1,a0,0x1f
10005714:	00003810 	mfhi	a3
10005718:	000710c3 	sra	v0,a3,0x3
1000571c:	00431023 	subu	v0,v0,v1
10005720:	00021880 	sll	v1,v0,0x2
10005724:	00621021 	addu	v0,v1,v0
10005728:	00021080 	sll	v0,v0,0x2
1000572c:	00821023 	subu	v0,a0,v0
10005730:	00022080 	sll	a0,v0,0x2
10005734:	00a41821 	addu	v1,a1,a0
10005738:	8c630000 	lw	v1,0(v1)
1000573c:	aca20050 	sw	v0,80(a1)
10005740:	90630001 	lbu	v1,1(v1)
10005744:	00031e00 	sll	v1,v1,0x18
10005748:	00031e03 	sra	v1,v1,0x18
1000574c:	106affec 	beq	v1,t2,10005700 <__add.constprop.5+0x74>
10005750:	00000000 	sll	zero,zero,0x0
10005754:	11020008 	beq	t0,v0,10005778 <__add.constprop.5+0xec>
10005758:	00000000 	sll	zero,zero,0x0
1000575c:	00a42821 	addu	a1,a1,a0
10005760:	acb00000 	sw	s0,0(a1)
10005764:	8fbf0014 	lw	ra,20(sp)
10005768:	8fb00010 	lw	s0,16(sp)
1000576c:	27bd0018 	addiu	sp,sp,24
10005770:	03e00008 	jr	ra
10005774:	00000000 	sll	zero,zero,0x0
10005778:	8fbf0014 	lw	ra,20(sp)
1000577c:	8fb00010 	lw	s0,16(sp)
10005780:	3c041000 	lui	a0,0x1000
10005784:	24847698 	addiu	a0,a0,30360
10005788:	27bd0018 	addiu	sp,sp,24
1000578c:	08000cb5 	j	100032d4 <printf>
10005790:	00000000 	sll	zero,zero,0x0

10005794 <is_point_inside>:
10005794:	8fa20020 	lw	v0,32(sp)
10005798:	afa40000 	sw	a0,0(sp)
1000579c:	0044202a 	slt	a0,v0,a0
100057a0:	afa50004 	sw	a1,4(sp)
100057a4:	afa60008 	sw	a2,8(sp)
100057a8:	afa7000c 	sw	a3,12(sp)
100057ac:	1480001c 	bnez	a0,10005820 <is_point_inside+0x8c>
100057b0:	00000000 	sll	zero,zero,0x0
100057b4:	8fa30010 	lw	v1,16(sp)
100057b8:	0043182a 	slt	v1,v0,v1
100057bc:	14600018 	bnez	v1,10005820 <is_point_inside+0x8c>
100057c0:	00000000 	sll	zero,zero,0x0
100057c4:	00c2302a 	slt	a2,a2,v0
100057c8:	14c00015 	bnez	a2,10005820 <is_point_inside+0x8c>
100057cc:	00000000 	sll	zero,zero,0x0
100057d0:	8fa30018 	lw	v1,24(sp)
100057d4:	0062102a 	slt	v0,v1,v0
100057d8:	14400011 	bnez	v0,10005820 <is_point_inside+0x8c>
100057dc:	00000000 	sll	zero,zero,0x0
100057e0:	8fa30024 	lw	v1,36(sp)
100057e4:	0065282a 	slt	a1,v1,a1
100057e8:	14a0000d 	bnez	a1,10005820 <is_point_inside+0x8c>
100057ec:	00000000 	sll	zero,zero,0x0
100057f0:	0067382a 	slt	a3,v1,a3
100057f4:	14e0000a 	bnez	a3,10005820 <is_point_inside+0x8c>
100057f8:	00000000 	sll	zero,zero,0x0
100057fc:	8fa20014 	lw	v0,20(sp)
10005800:	0043102a 	slt	v0,v0,v1
10005804:	14400006 	bnez	v0,10005820 <is_point_inside+0x8c>
10005808:	00000000 	sll	zero,zero,0x0
1000580c:	8fa2001c 	lw	v0,28(sp)
10005810:	0043102a 	slt	v0,v0,v1
10005814:	38420001 	xori	v0,v0,0x1
10005818:	03e00008 	jr	ra
1000581c:	00000000 	sll	zero,zero,0x0
10005820:	00001025 	or	v0,zero,zero
10005824:	03e00008 	jr	ra
10005828:	00000000 	sll	zero,zero,0x0

1000582c <is_left_collision>:
1000582c:	8c8a0000 	lw	t2,0(a0)
10005830:	8ca90000 	lw	t1,0(a1)
10005834:	8c8b0004 	lw	t3,4(a0)
10005838:	8c820008 	lw	v0,8(a0)
1000583c:	8c87000c 	lw	a3,12(a0)
10005840:	8cac0004 	lw	t4,4(a1)
10005844:	8ca60008 	lw	a2,8(a1)
10005848:	8ca4000c 	lw	a0,12(a1)
1000584c:	012a182a 	slt	v1,t1,t2
10005850:	01421021 	addu	v0,t2,v0
10005854:	01673821 	addu	a3,t3,a3
10005858:	01263021 	addu	a2,t1,a2
1000585c:	01842021 	addu	a0,t4,a0
10005860:	14600025 	bnez	v1,100058f8 <is_left_collision+0xcc>
10005864:	00000000 	sll	zero,zero,0x0
10005868:	0049402a 	slt	t0,v0,t1
1000586c:	15000047 	bnez	t0,1000598c <is_left_collision+0x160>
10005870:	00000000 	sll	zero,zero,0x0
10005874:	018b282a 	slt	a1,t4,t3
10005878:	14a00051 	bnez	a1,100059c0 <is_left_collision+0x194>
1000587c:	00000000 	sll	zero,zero,0x0
10005880:	00ec282a 	slt	a1,a3,t4
10005884:	14a0004e 	bnez	a1,100059c0 <is_left_collision+0x194>
10005888:	00000000 	sll	zero,zero,0x0
1000588c:	0149182a 	slt	v1,t2,t1
10005890:	1060006e 	beqz	v1,10005a4c <is_left_collision+0x220>
10005894:	00000000 	sll	zero,zero,0x0
10005898:	00c2182a 	slt	v1,a2,v0
1000589c:	14600038 	bnez	v1,10005980 <is_left_collision+0x154>
100058a0:	00000000 	sll	zero,zero,0x0
100058a4:	016c102a 	slt	v0,t3,t4
100058a8:	14400035 	bnez	v0,10005980 <is_left_collision+0x154>
100058ac:	00000000 	sll	zero,zero,0x0
100058b0:	008b582a 	slt	t3,a0,t3
100058b4:	15600032 	bnez	t3,10005980 <is_left_collision+0x154>
100058b8:	00000000 	sll	zero,zero,0x0
100058bc:	0149482a 	slt	t1,t2,t1
100058c0:	00ec602a 	slt	t4,a3,t4
100058c4:	1520004b 	bnez	t1,100059f4 <is_left_collision+0x1c8>
100058c8:	00000000 	sll	zero,zero,0x0
100058cc:	00ca302a 	slt	a2,a2,t2
100058d0:	14c00048 	bnez	a2,100059f4 <is_left_collision+0x1c8>
100058d4:	00000000 	sll	zero,zero,0x0
100058d8:	15800029 	bnez	t4,10005980 <is_left_collision+0x154>
100058dc:	00000000 	sll	zero,zero,0x0
100058e0:	0087102a 	slt	v0,a0,a3
100058e4:	10400026 	beqz	v0,10005980 <is_left_collision+0x154>
100058e8:	00000000 	sll	zero,zero,0x0
100058ec:	38420001 	xori	v0,v0,0x1
100058f0:	03e00008 	jr	ra
100058f4:	00000000 	sll	zero,zero,0x0
100058f8:	00ca282a 	slt	a1,a2,t2
100058fc:	14a0001d 	bnez	a1,10005974 <is_left_collision+0x148>
10005900:	00000000 	sll	zero,zero,0x0
10005904:	0046402a 	slt	t0,v0,a2
10005908:	15000017 	bnez	t0,10005968 <is_left_collision+0x13c>
1000590c:	00000000 	sll	zero,zero,0x0
10005910:	018b402a 	slt	t0,t4,t3
10005914:	1500002f 	bnez	t0,100059d4 <is_left_collision+0x1a8>
10005918:	00000000 	sll	zero,zero,0x0
1000591c:	00ec402a 	slt	t0,a3,t4
10005920:	1500003c 	bnez	t0,10005a14 <is_left_collision+0x1e8>
10005924:	00000000 	sll	zero,zero,0x0
10005928:	1460003f 	bnez	v1,10005a28 <is_left_collision+0x1fc>
1000592c:	00000000 	sll	zero,zero,0x0
10005930:	0049182a 	slt	v1,v0,t1
10005934:	14600034 	bnez	v1,10005a08 <is_left_collision+0x1dc>
10005938:	00000000 	sll	zero,zero,0x0
1000593c:	008b182a 	slt	v1,a0,t3
10005940:	14600045 	bnez	v1,10005a58 <is_left_collision+0x22c>
10005944:	00000000 	sll	zero,zero,0x0
10005948:	00e4182a 	slt	v1,a3,a0
1000594c:	10600042 	beqz	v1,10005a58 <is_left_collision+0x22c>
10005950:	00000000 	sll	zero,zero,0x0
10005954:	0149182a 	slt	v1,t2,t1
10005958:	1460ffcf 	bnez	v1,10005898 <is_left_collision+0x6c>
1000595c:	00000000 	sll	zero,zero,0x0
10005960:	14a0ffcd 	bnez	a1,10005898 <is_left_collision+0x6c>
10005964:	00000000 	sll	zero,zero,0x0
10005968:	016c182a 	slt	v1,t3,t4
1000596c:	1060001c 	beqz	v1,100059e0 <is_left_collision+0x1b4>
10005970:	00000000 	sll	zero,zero,0x0
10005974:	0049182a 	slt	v1,v0,t1
10005978:	1060ffc7 	beqz	v1,10005898 <is_left_collision+0x6c>
1000597c:	00000000 	sll	zero,zero,0x0
10005980:	00001025 	or	v0,zero,zero
10005984:	03e00008 	jr	ra
10005988:	00000000 	sll	zero,zero,0x0
1000598c:	00ca282a 	slt	a1,a2,t2
10005990:	14a0fffb 	bnez	a1,10005980 <is_left_collision+0x154>
10005994:	00000000 	sll	zero,zero,0x0
10005998:	0046682a 	slt	t5,v0,a2
1000599c:	11a0ffdc 	beqz	t5,10005910 <is_left_collision+0xe4>
100059a0:	00000000 	sll	zero,zero,0x0
100059a4:	0149182a 	slt	v1,t2,t1
100059a8:	1060ffef 	beqz	v1,10005968 <is_left_collision+0x13c>
100059ac:	00000000 	sll	zero,zero,0x0
100059b0:	1100ffbc 	beqz	t0,100058a4 <is_left_collision+0x78>
100059b4:	00000000 	sll	zero,zero,0x0
100059b8:	1000fff1 	beqz	zero,10005980 <is_left_collision+0x154>
100059bc:	00000000 	sll	zero,zero,0x0
100059c0:	00ca282a 	slt	a1,a2,t2
100059c4:	10a0fff4 	beqz	a1,10005998 <is_left_collision+0x16c>
100059c8:	00000000 	sll	zero,zero,0x0
100059cc:	1000ffb2 	beqz	zero,10005898 <is_left_collision+0x6c>
100059d0:	00000000 	sll	zero,zero,0x0
100059d4:	0149182a 	slt	v1,t2,t1
100059d8:	1460ffe6 	bnez	v1,10005974 <is_left_collision+0x148>
100059dc:	00000000 	sll	zero,zero,0x0
100059e0:	008b182a 	slt	v1,a0,t3
100059e4:	1460ffe3 	bnez	v1,10005974 <is_left_collision+0x148>
100059e8:	00000000 	sll	zero,zero,0x0
100059ec:	1000ffe4 	beqz	zero,10005980 <is_left_collision+0x154>
100059f0:	00000000 	sll	zero,zero,0x0
100059f4:	1580ffe2 	bnez	t4,10005980 <is_left_collision+0x154>
100059f8:	00000000 	sll	zero,zero,0x0
100059fc:	0087102a 	slt	v0,a0,a3
10005a00:	1000ffba 	beqz	zero,100058ec <is_left_collision+0xc0>
10005a04:	00000000 	sll	zero,zero,0x0
10005a08:	008b182a 	slt	v1,a0,t3
10005a0c:	10600009 	beqz	v1,10005a34 <is_left_collision+0x208>
10005a10:	00000000 	sll	zero,zero,0x0
10005a14:	0149182a 	slt	v1,t2,t1
10005a18:	1060ffd3 	beqz	v1,10005968 <is_left_collision+0x13c>
10005a1c:	00000000 	sll	zero,zero,0x0
10005a20:	1000ffd4 	beqz	zero,10005974 <is_left_collision+0x148>
10005a24:	00000000 	sll	zero,zero,0x0
10005a28:	008b182a 	slt	v1,a0,t3
10005a2c:	1460ffce 	bnez	v1,10005968 <is_left_collision+0x13c>
10005a30:	00000000 	sll	zero,zero,0x0
10005a34:	00e4182a 	slt	v1,a3,a0
10005a38:	1460fff6 	bnez	v1,10005a14 <is_left_collision+0x1e8>
10005a3c:	00000000 	sll	zero,zero,0x0
10005a40:	24020001 	addiu	v0,zero,1
10005a44:	03e00008 	jr	ra
10005a48:	00000000 	sll	zero,zero,0x0
10005a4c:	00ca282a 	slt	a1,a2,t2
10005a50:	1000ffc3 	beqz	zero,10005960 <is_left_collision+0x134>
10005a54:	00000000 	sll	zero,zero,0x0
10005a58:	0149182a 	slt	v1,t2,t1
10005a5c:	1060ffc2 	beqz	v1,10005968 <is_left_collision+0x13c>
10005a60:	00000000 	sll	zero,zero,0x0
10005a64:	1000ff8c 	beqz	zero,10005898 <is_left_collision+0x6c>
10005a68:	00000000 	sll	zero,zero,0x0

10005a6c <is_right_collision>:
10005a6c:	8c830000 	lw	v1,0(a0)
10005a70:	8ca90000 	lw	t1,0(a1)
10005a74:	8c8a0004 	lw	t2,4(a0)
10005a78:	8c880008 	lw	t0,8(a0)
10005a7c:	8c87000c 	lw	a3,12(a0)
10005a80:	8cab0004 	lw	t3,4(a1)
10005a84:	8ca60008 	lw	a2,8(a1)
10005a88:	8ca4000c 	lw	a0,12(a1)
10005a8c:	0123102a 	slt	v0,t1,v1
10005a90:	00684021 	addu	t0,v1,t0
10005a94:	01473821 	addu	a3,t2,a3
10005a98:	01263021 	addu	a2,t1,a2
10005a9c:	01642021 	addu	a0,t3,a0
10005aa0:	14400022 	bnez	v0,10005b2c <is_right_collision+0xc0>
10005aa4:	00000000 	sll	zero,zero,0x0
10005aa8:	0109102a 	slt	v0,t0,t1
10005aac:	1440001b 	bnez	v0,10005b1c <is_right_collision+0xb0>
10005ab0:	00000000 	sll	zero,zero,0x0
10005ab4:	016a102a 	slt	v0,t3,t2
10005ab8:	14400018 	bnez	v0,10005b1c <is_right_collision+0xb0>
10005abc:	00000000 	sll	zero,zero,0x0
10005ac0:	00eb102a 	slt	v0,a3,t3
10005ac4:	14400015 	bnez	v0,10005b1c <is_right_collision+0xb0>
10005ac8:	00000000 	sll	zero,zero,0x0
10005acc:	00c3102a 	slt	v0,a2,v1
10005ad0:	10400030 	beqz	v0,10005b94 <is_right_collision+0x128>
10005ad4:	00000000 	sll	zero,zero,0x0
10005ad8:	008a282a 	slt	a1,a0,t2
10005adc:	14a0000f 	bnez	a1,10005b1c <is_right_collision+0xb0>
10005ae0:	00000000 	sll	zero,zero,0x0
10005ae4:	00e4282a 	slt	a1,a3,a0
10005ae8:	14a0000c 	bnez	a1,10005b1c <is_right_collision+0xb0>
10005aec:	00000000 	sll	zero,zero,0x0
10005af0:	1440002d 	bnez	v0,10005ba8 <is_right_collision+0x13c>
10005af4:	00000000 	sll	zero,zero,0x0
10005af8:	0106102a 	slt	v0,t0,a2
10005afc:	1440002a 	bnez	v0,10005ba8 <is_right_collision+0x13c>
10005b00:	00000000 	sll	zero,zero,0x0
10005b04:	0069182a 	slt	v1,v1,t1
10005b08:	1060000b 	beqz	v1,10005b38 <is_right_collision+0xcc>
10005b0c:	00000000 	sll	zero,zero,0x0
10005b10:	00001025 	or	v0,zero,zero
10005b14:	03e00008 	jr	ra
10005b18:	00000000 	sll	zero,zero,0x0
10005b1c:	0069282a 	slt	a1,v1,t1
10005b20:	00001025 	or	v0,zero,zero
10005b24:	14a0fffb 	bnez	a1,10005b14 <is_right_collision+0xa8>
10005b28:	00000000 	sll	zero,zero,0x0
10005b2c:	00c3182a 	slt	v1,a2,v1
10005b30:	1460fff7 	bnez	v1,10005b10 <is_right_collision+0xa4>
10005b34:	00000000 	sll	zero,zero,0x0
10005b38:	014b102a 	slt	v0,t2,t3
10005b3c:	1440fff4 	bnez	v0,10005b10 <is_right_collision+0xa4>
10005b40:	00000000 	sll	zero,zero,0x0
10005b44:	008a502a 	slt	t2,a0,t2
10005b48:	1540fff1 	bnez	t2,10005b10 <is_right_collision+0xa4>
10005b4c:	00000000 	sll	zero,zero,0x0
10005b50:	0109482a 	slt	t1,t0,t1
10005b54:	15200004 	bnez	t1,10005b68 <is_right_collision+0xfc>
10005b58:	00000000 	sll	zero,zero,0x0
10005b5c:	00c8102a 	slt	v0,a2,t0
10005b60:	1040ffeb 	beqz	v0,10005b10 <is_right_collision+0xa4>
10005b64:	00000000 	sll	zero,zero,0x0
10005b68:	00eb582a 	slt	t3,a3,t3
10005b6c:	1560ffe8 	bnez	t3,10005b10 <is_right_collision+0xa4>
10005b70:	00000000 	sll	zero,zero,0x0
10005b74:	0087202a 	slt	a0,a0,a3
10005b78:	1480ffe5 	bnez	a0,10005b10 <is_right_collision+0xa4>
10005b7c:	00000000 	sll	zero,zero,0x0
10005b80:	15200009 	bnez	t1,10005ba8 <is_right_collision+0x13c>
10005b84:	00000000 	sll	zero,zero,0x0
10005b88:	00c8102a 	slt	v0,a2,t0
10005b8c:	03e00008 	jr	ra
10005b90:	00000000 	sll	zero,zero,0x0
10005b94:	0106282a 	slt	a1,t0,a2
10005b98:	10a0ffda 	beqz	a1,10005b04 <is_right_collision+0x98>
10005b9c:	00000000 	sll	zero,zero,0x0
10005ba0:	1000ffcd 	beqz	zero,10005ad8 <is_right_collision+0x6c>
10005ba4:	00000000 	sll	zero,zero,0x0
10005ba8:	24020001 	addiu	v0,zero,1
10005bac:	03e00008 	jr	ra
10005bb0:	00000000 	sll	zero,zero,0x0

10005bb4 <is_up_collision>:
10005bb4:	8ca60000 	lw	a2,0(a1)
10005bb8:	8c8b0000 	lw	t3,0(a0)
10005bbc:	8c8d0004 	lw	t5,4(a0)
10005bc0:	8c880008 	lw	t0,8(a0)
10005bc4:	8c87000c 	lw	a3,12(a0)
10005bc8:	8ca20008 	lw	v0,8(a1)
10005bcc:	8cac0004 	lw	t4,4(a1)
10005bd0:	8ca3000c 	lw	v1,12(a1)
10005bd4:	00cb202a 	slt	a0,a2,t3
10005bd8:	01684021 	addu	t0,t3,t0
10005bdc:	01a73821 	addu	a3,t5,a3
10005be0:	00c21021 	addu	v0,a2,v0
10005be4:	01832821 	addu	a1,t4,v1
10005be8:	14800015 	bnez	a0,10005c40 <is_up_collision+0x8c>
10005bec:	00000000 	sll	zero,zero,0x0
10005bf0:	0106182a 	slt	v1,t0,a2
10005bf4:	14600035 	bnez	v1,10005ccc <is_up_collision+0x118>
10005bf8:	00000000 	sll	zero,zero,0x0
10005bfc:	018d482a 	slt	t1,t4,t5
10005c00:	15200068 	bnez	t1,10005da4 <is_up_collision+0x1f0>
10005c04:	00000000 	sll	zero,zero,0x0
10005c08:	00ec482a 	slt	t1,a3,t4
10005c0c:	15200065 	bnez	t1,10005da4 <is_up_collision+0x1f0>
10005c10:	00000000 	sll	zero,zero,0x0
10005c14:	0166482a 	slt	t1,t3,a2
10005c18:	1120006f 	beqz	t1,10005dd8 <is_up_collision+0x224>
10005c1c:	00000000 	sll	zero,zero,0x0
10005c20:	14600004 	bnez	v1,10005c34 <is_up_collision+0x80>
10005c24:	00000000 	sll	zero,zero,0x0
10005c28:	0048482a 	slt	t1,v0,t0
10005c2c:	11200042 	beqz	t1,10005d38 <is_up_collision+0x184>
10005c30:	00000000 	sll	zero,zero,0x0
10005c34:	00001025 	or	v0,zero,zero
10005c38:	03e00008 	jr	ra
10005c3c:	00000000 	sll	zero,zero,0x0
10005c40:	004b482a 	slt	t1,v0,t3
10005c44:	15200036 	bnez	t1,10005d20 <is_up_collision+0x16c>
10005c48:	00000000 	sll	zero,zero,0x0
10005c4c:	0102502a 	slt	t2,t0,v0
10005c50:	15400041 	bnez	t2,10005d58 <is_up_collision+0x1a4>
10005c54:	00000000 	sll	zero,zero,0x0
10005c58:	018d502a 	slt	t2,t4,t5
10005c5c:	1140002a 	beqz	t2,10005d08 <is_up_collision+0x154>
10005c60:	00000000 	sll	zero,zero,0x0
10005c64:	1080003e 	beqz	a0,10005d60 <is_up_collision+0x1ac>
10005c68:	00000000 	sll	zero,zero,0x0
10005c6c:	00ad182a 	slt	v1,a1,t5
10005c70:	1060fff0 	beqz	v1,10005c34 <is_up_collision+0x80>
10005c74:	00000000 	sll	zero,zero,0x0
10005c78:	0106182a 	slt	v1,t0,a2
10005c7c:	1060002b 	beqz	v1,10005d2c <is_up_collision+0x178>
10005c80:	00000000 	sll	zero,zero,0x0
10005c84:	0166302a 	slt	a2,t3,a2
10005c88:	14c0ffea 	bnez	a2,10005c34 <is_up_collision+0x80>
10005c8c:	00000000 	sll	zero,zero,0x0
10005c90:	004b582a 	slt	t3,v0,t3
10005c94:	1560ffe7 	bnez	t3,10005c34 <is_up_collision+0x80>
10005c98:	00000000 	sll	zero,zero,0x0
10005c9c:	00ec202a 	slt	a0,a3,t4
10005ca0:	1480ffe4 	bnez	a0,10005c34 <is_up_collision+0x80>
10005ca4:	00000000 	sll	zero,zero,0x0
10005ca8:	00a7282a 	slt	a1,a1,a3
10005cac:	14a0ffe1 	bnez	a1,10005c34 <is_up_collision+0x80>
10005cb0:	00000000 	sll	zero,zero,0x0
10005cb4:	1460ffdf 	bnez	v1,10005c34 <is_up_collision+0x80>
10005cb8:	00000000 	sll	zero,zero,0x0
10005cbc:	0048102a 	slt	v0,v0,t0
10005cc0:	38420001 	xori	v0,v0,0x1
10005cc4:	03e00008 	jr	ra
10005cc8:	00000000 	sll	zero,zero,0x0
10005ccc:	004b482a 	slt	t1,v0,t3
10005cd0:	1120ffde 	beqz	t1,10005c4c <is_up_collision+0x98>
10005cd4:	00000000 	sll	zero,zero,0x0
10005cd8:	10600024 	beqz	v1,10005d6c <is_up_collision+0x1b8>
10005cdc:	00000000 	sll	zero,zero,0x0
10005ce0:	0166502a 	slt	t2,t3,a2
10005ce4:	1540ffd3 	bnez	t2,10005c34 <is_up_collision+0x80>
10005ce8:	00000000 	sll	zero,zero,0x0
10005cec:	1520000d 	bnez	t1,10005d24 <is_up_collision+0x170>
10005cf0:	00000000 	sll	zero,zero,0x0
10005cf4:	01ac182a 	slt	v1,t5,t4
10005cf8:	1460ffdf 	bnez	v1,10005c78 <is_up_collision+0xc4>
10005cfc:	00000000 	sll	zero,zero,0x0
10005d00:	1000ffda 	beqz	zero,10005c6c <is_up_collision+0xb8>
10005d04:	00000000 	sll	zero,zero,0x0
10005d08:	00ec182a 	slt	v1,a3,t4
10005d0c:	14600012 	bnez	v1,10005d58 <is_up_collision+0x1a4>
10005d10:	00000000 	sll	zero,zero,0x0
10005d14:	0166182a 	slt	v1,t3,a2
10005d18:	1060fff6 	beqz	v1,10005cf4 <is_up_collision+0x140>
10005d1c:	00000000 	sll	zero,zero,0x0
10005d20:	0106182a 	slt	v1,t0,a2
10005d24:	1460ffc3 	bnez	v1,10005c34 <is_up_collision+0x80>
10005d28:	00000000 	sll	zero,zero,0x0
10005d2c:	0048202a 	slt	a0,v0,t0
10005d30:	1480ffd4 	bnez	a0,10005c84 <is_up_collision+0xd0>
10005d34:	00000000 	sll	zero,zero,0x0
10005d38:	01ac482a 	slt	t1,t5,t4
10005d3c:	1520ffd1 	bnez	t1,10005c84 <is_up_collision+0xd0>
10005d40:	00000000 	sll	zero,zero,0x0
10005d44:	00ad682a 	slt	t5,a1,t5
10005d48:	15a0ffce 	bnez	t5,10005c84 <is_up_collision+0xd0>
10005d4c:	00000000 	sll	zero,zero,0x0
10005d50:	1000ffb8 	beqz	zero,10005c34 <is_up_collision+0x80>
10005d54:	00000000 	sll	zero,zero,0x0
10005d58:	1480ffe6 	bnez	a0,10005cf4 <is_up_collision+0x140>
10005d5c:	00000000 	sll	zero,zero,0x0
10005d60:	0106182a 	slt	v1,t0,a2
10005d64:	1460ffde 	bnez	v1,10005ce0 <is_up_collision+0x12c>
10005d68:	00000000 	sll	zero,zero,0x0
10005d6c:	00ad502a 	slt	t2,a1,t5
10005d70:	1540ffa8 	bnez	t2,10005c14 <is_up_collision+0x60>
10005d74:	00000000 	sll	zero,zero,0x0
10005d78:	00e5202a 	slt	a0,a3,a1
10005d7c:	1480ffa5 	bnez	a0,10005c14 <is_up_collision+0x60>
10005d80:	00000000 	sll	zero,zero,0x0
10005d84:	1520000c 	bnez	t1,10005db8 <is_up_collision+0x204>
10005d88:	00000000 	sll	zero,zero,0x0
10005d8c:	0102182a 	slt	v1,t0,v0
10005d90:	1460ffe0 	bnez	v1,10005d14 <is_up_collision+0x160>
10005d94:	00000000 	sll	zero,zero,0x0
10005d98:	24020001 	addiu	v0,zero,1
10005d9c:	03e00008 	jr	ra
10005da0:	00000000 	sll	zero,zero,0x0
10005da4:	004b482a 	slt	t1,v0,t3
10005da8:	1120ffa8 	beqz	t1,10005c4c <is_up_collision+0x98>
10005dac:	00000000 	sll	zero,zero,0x0
10005db0:	1000ffee 	beqz	zero,10005d6c <is_up_collision+0x1b8>
10005db4:	00000000 	sll	zero,zero,0x0
10005db8:	0166202a 	slt	a0,t3,a2
10005dbc:	1480ffdb 	bnez	a0,10005d2c <is_up_collision+0x178>
10005dc0:	00000000 	sll	zero,zero,0x0
10005dc4:	0048202a 	slt	a0,v0,t0
10005dc8:	1080ffdb 	beqz	a0,10005d38 <is_up_collision+0x184>
10005dcc:	00000000 	sll	zero,zero,0x0
10005dd0:	1000ff98 	beqz	zero,10005c34 <is_up_collision+0x80>
10005dd4:	00000000 	sll	zero,zero,0x0
10005dd8:	004b482a 	slt	t1,v0,t3
10005ddc:	1000ffc3 	beqz	zero,10005cec <is_up_collision+0x138>
10005de0:	00000000 	sll	zero,zero,0x0

10005de4 <is_down_collision>:
10005de4:	8c830000 	lw	v1,0(a0)
10005de8:	8ca60000 	lw	a2,0(a1)
10005dec:	8c8a0004 	lw	t2,4(a0)
10005df0:	8c890008 	lw	t1,8(a0)
10005df4:	8c88000c 	lw	t0,12(a0)
10005df8:	8cab0004 	lw	t3,4(a1)
10005dfc:	8ca20008 	lw	v0,8(a1)
10005e00:	8ca7000c 	lw	a3,12(a1)
10005e04:	00c3282a 	slt	a1,a2,v1
10005e08:	00694821 	addu	t1,v1,t1
10005e0c:	01484021 	addu	t0,t2,t0
10005e10:	00c22021 	addu	a0,a2,v0
10005e14:	01673821 	addu	a3,t3,a3
10005e18:	14a00020 	bnez	a1,10005e9c <is_down_collision+0xb8>
10005e1c:	00000000 	sll	zero,zero,0x0
10005e20:	0126102a 	slt	v0,t1,a2
10005e24:	14400019 	bnez	v0,10005e8c <is_down_collision+0xa8>
10005e28:	00000000 	sll	zero,zero,0x0
10005e2c:	016a102a 	slt	v0,t3,t2
10005e30:	14400016 	bnez	v0,10005e8c <is_down_collision+0xa8>
10005e34:	00000000 	sll	zero,zero,0x0
10005e38:	010b102a 	slt	v0,t0,t3
10005e3c:	14400013 	bnez	v0,10005e8c <is_down_collision+0xa8>
10005e40:	00000000 	sll	zero,zero,0x0
10005e44:	0083102a 	slt	v0,a0,v1
10005e48:	1440000d 	bnez	v0,10005e80 <is_down_collision+0x9c>
10005e4c:	00000000 	sll	zero,zero,0x0
10005e50:	0124102a 	slt	v0,t1,a0
10005e54:	14400007 	bnez	v0,10005e74 <is_down_collision+0x90>
10005e58:	00000000 	sll	zero,zero,0x0
10005e5c:	00ea102a 	slt	v0,a3,t2
10005e60:	14400023 	bnez	v0,10005ef0 <is_down_collision+0x10c>
10005e64:	00000000 	sll	zero,zero,0x0
10005e68:	0107102a 	slt	v0,t0,a3
10005e6c:	14400020 	bnez	v0,10005ef0 <is_down_collision+0x10c>
10005e70:	00000000 	sll	zero,zero,0x0
10005e74:	0066182a 	slt	v1,v1,a2
10005e78:	1060000b 	beqz	v1,10005ea8 <is_down_collision+0xc4>
10005e7c:	00000000 	sll	zero,zero,0x0
10005e80:	00001025 	or	v0,zero,zero
10005e84:	03e00008 	jr	ra
10005e88:	00000000 	sll	zero,zero,0x0
10005e8c:	0066282a 	slt	a1,v1,a2
10005e90:	00001025 	or	v0,zero,zero
10005e94:	14a0fffb 	bnez	a1,10005e84 <is_down_collision+0xa0>
10005e98:	00000000 	sll	zero,zero,0x0
10005e9c:	0083182a 	slt	v1,a0,v1
10005ea0:	1460fff7 	bnez	v1,10005e80 <is_down_collision+0x9c>
10005ea4:	00000000 	sll	zero,zero,0x0
10005ea8:	014b102a 	slt	v0,t2,t3
10005eac:	1440fff4 	bnez	v0,10005e80 <is_down_collision+0x9c>
10005eb0:	00000000 	sll	zero,zero,0x0
10005eb4:	00ea502a 	slt	t2,a3,t2
10005eb8:	1540fff1 	bnez	t2,10005e80 <is_down_collision+0x9c>
10005ebc:	00000000 	sll	zero,zero,0x0
10005ec0:	0126302a 	slt	a2,t1,a2
10005ec4:	14c0ffee 	bnez	a2,10005e80 <is_down_collision+0x9c>
10005ec8:	00000000 	sll	zero,zero,0x0
10005ecc:	0089102a 	slt	v0,a0,t1
10005ed0:	1440ffeb 	bnez	v0,10005e80 <is_down_collision+0x9c>
10005ed4:	00000000 	sll	zero,zero,0x0
10005ed8:	010b582a 	slt	t3,t0,t3
10005edc:	15600004 	bnez	t3,10005ef0 <is_down_collision+0x10c>
10005ee0:	00000000 	sll	zero,zero,0x0
10005ee4:	00e8102a 	slt	v0,a3,t0
10005ee8:	03e00008 	jr	ra
10005eec:	00000000 	sll	zero,zero,0x0
10005ef0:	24020001 	addiu	v0,zero,1
10005ef4:	03e00008 	jr	ra
10005ef8:	00000000 	sll	zero,zero,0x0

10005efc <main_loop>:
10005efc:	27bdff50 	addiu	sp,sp,-176
10005f00:	afb30094 	sw	s3,148(sp)
10005f04:	3c131033 	lui	s3,0x1033
10005f08:	26730180 	addiu	s3,s3,384
10005f0c:	afbf00ac 	sw	ra,172(sp)
10005f10:	afb5009c 	sw	s5,156(sp)
10005f14:	afb40098 	sw	s4,152(sp)
10005f18:	afb20090 	sw	s2,144(sp)
10005f1c:	afb1008c 	sw	s1,140(sp)
10005f20:	afb00088 	sw	s0,136(sp)
10005f24:	afbe00a8 	sw	s8,168(sp)
10005f28:	afb700a4 	sw	s7,164(sp)
10005f2c:	afb600a0 	sw	s6,160(sp)
10005f30:	0c0004fc 	jal	100013f0 <screen_clear>
10005f34:	00000000 	sll	zero,zero,0x0
10005f38:	02602025 	or	a0,s3,zero
10005f3c:	24060050 	addiu	a2,zero,80
10005f40:	00002825 	or	a1,zero,zero
10005f44:	ae600050 	sw	zero,80(s3)
10005f48:	0c000df4 	jal	100037d0 <memset>
10005f4c:	00000000 	sll	zero,zero,0x0
10005f50:	ae600050 	sw	zero,80(s3)
10005f54:	0c0004b4 	jal	100012d0 <screen_init>
10005f58:	00000000 	sll	zero,zero,0x0
10005f5c:	3c03100e 	lui	v1,0x100e
10005f60:	24626b84 	addiu	v0,v1,27524
10005f64:	8c480010 	lw	t0,16(v0)
10005f68:	8c646b84 	lw	a0,27524(v1)
10005f6c:	8c450004 	lw	a1,4(v0)
10005f70:	8c460008 	lw	a2,8(v0)
10005f74:	8c47000c 	lw	a3,12(v0)
10005f78:	afa80010 	sw	t0,16(sp)
10005f7c:	0c001168 	jal	100045a0 <build_player1>
10005f80:	00000000 	sll	zero,zero,0x0
10005f84:	00408025 	or	s0,v0,zero
10005f88:	00402025 	or	a0,v0,zero
10005f8c:	0c0010e6 	jal	10004398 <kbRespond_add>
10005f90:	00000000 	sll	zero,zero,0x0
10005f94:	02002025 	or	a0,s0,zero
10005f98:	0c0015a3 	jal	1000568c <__add.constprop.5>
10005f9c:	00000000 	sll	zero,zero,0x0
10005fa0:	3c03100e 	lui	v1,0x100e
10005fa4:	24626b70 	addiu	v0,v1,27504
10005fa8:	8c480010 	lw	t0,16(v0)
10005fac:	8c646b70 	lw	a0,27504(v1)
10005fb0:	8c450004 	lw	a1,4(v0)
10005fb4:	8c460008 	lw	a2,8(v0)
10005fb8:	8c47000c 	lw	a3,12(v0)
10005fbc:	afa80010 	sw	t0,16(sp)
10005fc0:	0c00055c 	jal	10001570 <build_player2>
10005fc4:	00000000 	sll	zero,zero,0x0
10005fc8:	00408025 	or	s0,v0,zero
10005fcc:	00402025 	or	a0,v0,zero
10005fd0:	0c0010e6 	jal	10004398 <kbRespond_add>
10005fd4:	00000000 	sll	zero,zero,0x0
10005fd8:	02002025 	or	a0,s0,zero
10005fdc:	0c0015a3 	jal	1000568c <__add.constprop.5>
10005fe0:	00000000 	sll	zero,zero,0x0
10005fe4:	0c0003e7 	jal	10000f9c <uptime>
10005fe8:	00000000 	sll	zero,zero,0x0
10005fec:	00402025 	or	a0,v0,zero
10005ff0:	00409025 	or	s2,v0,zero
10005ff4:	0c000e14 	jal	10003850 <srand>
10005ff8:	00000000 	sll	zero,zero,0x0
10005ffc:	3c02100e 	lui	v0,0x100e
10006000:	3c03100e 	lui	v1,0x100e
10006004:	afa20068 	sw	v0,104(sp)
10006008:	24427204 	addiu	v0,v0,29188
1000600c:	3c04100e 	lui	a0,0x100e
10006010:	afa20064 	sw	v0,100(sp)
10006014:	246271e8 	addiu	v0,v1,29160
10006018:	3c05100e 	lui	a1,0x100e
1000601c:	afa20078 	sw	v0,120(sp)
10006020:	248271cc 	addiu	v0,a0,29132
10006024:	afa20074 	sw	v0,116(sp)
10006028:	3c151033 	lui	s5,0x1033
1000602c:	24a271b0 	addiu	v0,a1,29104
10006030:	afa2006c 	sw	v0,108(sp)
10006034:	26a20188 	addiu	v0,s5,392
10006038:	afa2004c 	sw	v0,76(sp)
1000603c:	3c027728 	lui	v0,0x7728
10006040:	24420773 	addiu	v0,v0,1907
10006044:	afa20054 	sw	v0,84(sp)
10006048:	3c021062 	lui	v0,0x1062
1000604c:	3c061021 	lui	a2,0x1021
10006050:	3c101033 	lui	s0,0x1033
10006054:	24424dd3 	addiu	v0,v0,19923
10006058:	afa30080 	sw	v1,128(sp)
1000605c:	afa4007c 	sw	a0,124(sp)
10006060:	afa50070 	sw	a1,112(sp)
10006064:	0000a025 	or	s4,zero,zero
10006068:	00008825 	or	s1,zero,zero
1000606c:	afa60050 	sw	a2,80(sp)
10006070:	261001d0 	addiu	s0,s0,464
10006074:	afa2005c 	sw	v0,92(sp)
10006078:	10000004 	beqz	zero,1000608c <main_loop+0x190>
1000607c:	00000000 	sll	zero,zero,0x0
10006080:	0c0003e7 	jal	10000f9c <uptime>
10006084:	00000000 	sll	zero,zero,0x0
10006088:	00409025 	or	s2,v0,zero
1000608c:	0251102b 	sltu	v0,s2,s1
10006090:	1440fffb 	bnez	v0,10006080 <main_loop+0x184>
10006094:	00000000 	sll	zero,zero,0x0
10006098:	0c000e09 	jal	10003824 <rand>
1000609c:	00000000 	sll	zero,zero,0x0
100060a0:	8fa30054 	lw	v1,84(sp)
100060a4:	000227c3 	sra	a0,v0,0x1f
100060a8:	00430018 	mult	v0,v1
100060ac:	8fb10050 	lw	s1,80(sp)
100060b0:	00003810 	mfhi	a3
100060b4:	00071a03 	sra	v1,a3,0x8
100060b8:	00641823 	subu	v1,v1,a0
100060bc:	24040226 	addiu	a0,zero,550
100060c0:	70641802 	mul	v1,v1,a0
100060c4:	00431023 	subu	v0,v0,v1
100060c8:	ae228514 	sw	v0,-31468(s1)
100060cc:	0c000e09 	jal	10003824 <rand>
100060d0:	00000000 	sll	zero,zero,0x0
100060d4:	3c0468db 	lui	a0,0x68db
100060d8:	34848bad 	ori	a0,a0,0x8bad
100060dc:	00440018 	mult	v0,a0
100060e0:	000227c3 	sra	a0,v0,0x1f
100060e4:	00003810 	mfhi	a3
100060e8:	00071b03 	sra	v1,a3,0xc
100060ec:	00641823 	subu	v1,v1,a0
100060f0:	24042710 	addiu	a0,zero,10000
100060f4:	70641802 	mul	v1,v1,a0
100060f8:	00431823 	subu	v1,v0,v1
100060fc:	28620032 	slti	v0,v1,50
10006100:	1040001d 	beqz	v0,10006178 <main_loop+0x27c>
10006104:	00000000 	sll	zero,zero,0x0
10006108:	28620014 	slti	v0,v1,20
1000610c:	8e288514 	lw	t0,-31468(s1)
10006110:	144001f6 	bnez	v0,100068ec <main_loop+0x9f0>
10006114:	00000000 	sll	zero,zero,0x0
10006118:	28620023 	slti	v0,v1,35
1000611c:	14400263 	bnez	v0,10006aac <main_loop+0xbb0>
10006120:	00000000 	sll	zero,zero,0x0
10006124:	2863002d 	slti	v1,v1,45
10006128:	1460024c 	bnez	v1,10006a5c <main_loop+0xb60>
1000612c:	00000000 	sll	zero,zero,0x0
10006130:	8fa7006c 	lw	a3,108(sp)
10006134:	8ce20018 	lw	v0,24(a3)
10006138:	8ce40010 	lw	a0,16(a3)
1000613c:	8ce30014 	lw	v1,20(a3)
10006140:	8ce50004 	lw	a1,4(a3)
10006144:	8ce60008 	lw	a2,8(a3)
10006148:	8ce7000c 	lw	a3,12(a3)
1000614c:	afa20018 	sw	v0,24(sp)
10006150:	8fa20070 	lw	v0,112(sp)
10006154:	afa40010 	sw	a0,16(sp)
10006158:	afa30014 	sw	v1,20(sp)
1000615c:	01002025 	or	a0,t0,zero
10006160:	ac4871b0 	sw	t0,29104(v0)
10006164:	0c0012a8 	jal	10004aa0 <build_planeU>
10006168:	00000000 	sll	zero,zero,0x0
1000616c:	00402025 	or	a0,v0,zero
10006170:	0c0015a3 	jal	1000568c <__add.constprop.5>
10006174:	00000000 	sll	zero,zero,0x0
10006178:	3c02cccc 	lui	v0,0xcccc
1000617c:	3442cccd 	ori	v0,v0,0xcccd
10006180:	02820019 	multu	s4,v0
10006184:	00001010 	mfhi	v0
10006188:	00021142 	srl	v0,v0,0x5
1000618c:	00021880 	sll	v1,v0,0x2
10006190:	00621021 	addu	v0,v1,v0
10006194:	000210c0 	sll	v0,v0,0x3
10006198:	128200bb 	beq	s4,v0,10006488 <main_loop+0x58c>
1000619c:	00000000 	sll	zero,zero,0x0
100061a0:	02608825 	or	s1,s3,zero
100061a4:	24160001 	addiu	s6,zero,1
100061a8:	10000003 	beqz	zero,100061b8 <main_loop+0x2bc>
100061ac:	00000000 	sll	zero,zero,0x0
100061b0:	1211000c 	beq	s0,s1,100061e4 <main_loop+0x2e8>
100061b4:	00000000 	sll	zero,zero,0x0
100061b8:	8e240000 	lw	a0,0(s1)
100061bc:	26310004 	addiu	s1,s1,4
100061c0:	90820001 	lbu	v0,1(a0)
100061c4:	00021600 	sll	v0,v0,0x18
100061c8:	00021603 	sra	v0,v0,0x18
100061cc:	1456fff8 	bne	v0,s6,100061b0 <main_loop+0x2b4>
100061d0:	00000000 	sll	zero,zero,0x0
100061d4:	0c0010a4 	jal	10004290 <mv_virtual_automove>
100061d8:	00000000 	sll	zero,zero,0x0
100061dc:	1611fff6 	bne	s0,s1,100061b8 <main_loop+0x2bc>
100061e0:	00000000 	sll	zero,zero,0x0
100061e4:	24020276 	addiu	v0,zero,630
100061e8:	afa20040 	sw	v0,64(sp)
100061ec:	240201d6 	addiu	v0,zero,470
100061f0:	afa00038 	sw	zero,56(sp)
100061f4:	afa0003c 	sw	zero,60(sp)
100061f8:	afa20044 	sw	v0,68(sp)
100061fc:	0260b025 	or	s6,s3,zero
10006200:	24170001 	addiu	s7,zero,1
10006204:	10000004 	beqz	zero,10006218 <main_loop+0x31c>
10006208:	00000000 	sll	zero,zero,0x0
1000620c:	26d60004 	addiu	s6,s6,4
10006210:	12d10021 	beq	s6,s1,10006298 <main_loop+0x39c>
10006214:	00000000 	sll	zero,zero,0x0
10006218:	8ec40000 	lw	a0,0(s6)
1000621c:	90820001 	lbu	v0,1(a0)
10006220:	00021600 	sll	v0,v0,0x18
10006224:	00021603 	sra	v0,v0,0x18
10006228:	1457fff8 	bne	v0,s7,1000620c <main_loop+0x310>
1000622c:	00000000 	sll	zero,zero,0x0
10006230:	27a50020 	addiu	a1,sp,32
10006234:	0c000845 	jal	10002114 <cp_virtual_locate>
10006238:	00000000 	sll	zero,zero,0x0
1000623c:	8ec40000 	lw	a0,0(s6)
10006240:	0c0008ea 	jal	100023a8 <cp_virtual_isEnemy>
10006244:	00000000 	sll	zero,zero,0x0
10006248:	27a50038 	addiu	a1,sp,56
1000624c:	27a40020 	addiu	a0,sp,32
10006250:	104000de 	beqz	v0,100065cc <main_loop+0x6d0>
10006254:	00000000 	sll	zero,zero,0x0
10006258:	0c0014ff 	jal	100053fc <is_outside_collision>
1000625c:	00000000 	sll	zero,zero,0x0
10006260:	1457ffea 	bne	v0,s7,1000620c <main_loop+0x310>
10006264:	00000000 	sll	zero,zero,0x0
10006268:	27a40020 	addiu	a0,sp,32
1000626c:	27a50038 	addiu	a1,sp,56
10006270:	0c0014b8 	jal	100052e0 <is_inside_collision>
10006274:	00000000 	sll	zero,zero,0x0
10006278:	1440ffe4 	bnez	v0,1000620c <main_loop+0x310>
1000627c:	00000000 	sll	zero,zero,0x0
10006280:	8ec40000 	lw	a0,0(s6)
10006284:	0c000540 	jal	10001500 <screen_rm>
10006288:	00000000 	sll	zero,zero,0x0
1000628c:	26d60004 	addiu	s6,s6,4
10006290:	16d1ffe1 	bne	s6,s1,10006218 <main_loop+0x31c>
10006294:	00000000 	sll	zero,zero,0x0
10006298:	0260b825 	or	s7,s3,zero
1000629c:	24110001 	addiu	s1,zero,1
100062a0:	8ee40000 	lw	a0,0(s7)
100062a4:	90820001 	lbu	v0,1(a0)
100062a8:	00021600 	sll	v0,v0,0x18
100062ac:	00021603 	sra	v0,v0,0x18
100062b0:	10510116 	beq	v0,s1,1000670c <main_loop+0x810>
100062b4:	00000000 	sll	zero,zero,0x0
100062b8:	8fa2004c 	lw	v0,76(sp)
100062bc:	26f70004 	addiu	s7,s7,4
100062c0:	1457fff7 	bne	v0,s7,100062a0 <main_loop+0x3a4>
100062c4:	00000000 	sll	zero,zero,0x0
100062c8:	0260b825 	or	s7,s3,zero
100062cc:	241e0001 	addiu	s8,zero,1
100062d0:	24110014 	addiu	s1,zero,20
100062d4:	10000004 	beqz	zero,100062e8 <main_loop+0x3ec>
100062d8:	00000000 	sll	zero,zero,0x0
100062dc:	26f70004 	addiu	s7,s7,4
100062e0:	12f60051 	beq	s7,s6,10006428 <main_loop+0x52c>
100062e4:	00000000 	sll	zero,zero,0x0
100062e8:	8ee40000 	lw	a0,0(s7)
100062ec:	90820001 	lbu	v0,1(a0)
100062f0:	00021600 	sll	v0,v0,0x18
100062f4:	00021603 	sra	v0,v0,0x18
100062f8:	145efff8 	bne	v0,s8,100062dc <main_loop+0x3e0>
100062fc:	00000000 	sll	zero,zero,0x0
10006300:	0c0008bb 	jal	100022ec <cp_virtual_isBullet>
10006304:	00000000 	sll	zero,zero,0x0
10006308:	145efff4 	bne	v0,s8,100062dc <main_loop+0x3e0>
1000630c:	00000000 	sll	zero,zero,0x0
10006310:	8ee40000 	lw	a0,0(s7)
10006314:	27a50038 	addiu	a1,sp,56
10006318:	0c000845 	jal	10002114 <cp_virtual_locate>
1000631c:	00000000 	sll	zero,zero,0x0
10006320:	8ee40000 	lw	a0,0(s7)
10006324:	0000a825 	or	s5,zero,zero
10006328:	0c0008d1 	jal	10002344 <cp_virtual_isEnemyBullet>
1000632c:	00000000 	sll	zero,zero,0x0
10006330:	02604025 	or	t0,s3,zero
10006334:	104000d0 	beqz	v0,10006678 <main_loop+0x77c>
10006338:	00000000 	sll	zero,zero,0x0
1000633c:	8d040000 	lw	a0,0(t0)
10006340:	90820001 	lbu	v0,1(a0)
10006344:	00021600 	sll	v0,v0,0x18
10006348:	00021603 	sra	v0,v0,0x18
1000634c:	105e000b 	beq	v0,s8,1000637c <main_loop+0x480>
10006350:	00000000 	sll	zero,zero,0x0
10006354:	25080004 	addiu	t0,t0,4
10006358:	12beffe0 	beq	s5,s8,100062dc <main_loop+0x3e0>
1000635c:	00000000 	sll	zero,zero,0x0
10006360:	8d040000 	lw	a0,0(t0)
10006364:	24150001 	addiu	s5,zero,1
10006368:	90820001 	lbu	v0,1(a0)
1000636c:	00021600 	sll	v0,v0,0x18
10006370:	00021603 	sra	v0,v0,0x18
10006374:	145efff7 	bne	v0,s8,10006354 <main_loop+0x458>
10006378:	00000000 	sll	zero,zero,0x0
1000637c:	afa80048 	sw	t0,72(sp)
10006380:	0c000874 	jal	100021d0 <cp_virtual_isPlayer>
10006384:	00000000 	sll	zero,zero,0x0
10006388:	8fa80048 	lw	t0,72(sp)
1000638c:	145efff1 	bne	v0,s8,10006354 <main_loop+0x458>
10006390:	00000000 	sll	zero,zero,0x0
10006394:	8d040000 	lw	a0,0(t0)
10006398:	27a50020 	addiu	a1,sp,32
1000639c:	0c000845 	jal	10002114 <cp_virtual_locate>
100063a0:	00000000 	sll	zero,zero,0x0
100063a4:	27a50020 	addiu	a1,sp,32
100063a8:	27a40038 	addiu	a0,sp,56
100063ac:	0c0014b8 	jal	100052e0 <is_inside_collision>
100063b0:	00000000 	sll	zero,zero,0x0
100063b4:	8fa80048 	lw	t0,72(sp)
100063b8:	1040ffe6 	beqz	v0,10006354 <main_loop+0x458>
100063bc:	00000000 	sll	zero,zero,0x0
100063c0:	00154080 	sll	t0,s5,0x2
100063c4:	0268a821 	addu	s5,s3,t0
100063c8:	8ea90000 	lw	t1,0(s5)
100063cc:	8ee40000 	lw	a0,0(s7)
100063d0:	afa90048 	sw	t1,72(sp)
100063d4:	0c00070e 	jal	10001c38 <battle_virtual_get_attack>
100063d8:	00000000 	sll	zero,zero,0x0
100063dc:	8fa90048 	lw	t1,72(sp)
100063e0:	00402825 	or	a1,v0,zero
100063e4:	01202025 	or	a0,t1,zero
100063e8:	0c0006b8 	jal	10001ae0 <battle_virtual_hurt>
100063ec:	00000000 	sll	zero,zero,0x0
100063f0:	8ee40000 	lw	a0,0(s7)
100063f4:	0c000540 	jal	10001500 <screen_rm>
100063f8:	00000000 	sll	zero,zero,0x0
100063fc:	8ea40000 	lw	a0,0(s5)
10006400:	0c0006e4 	jal	10001b90 <battle_virtual_isCrash>
10006404:	00000000 	sll	zero,zero,0x0
10006408:	1040ffb4 	beqz	v0,100062dc <main_loop+0x3e0>
1000640c:	00000000 	sll	zero,zero,0x0
10006410:	8ea40000 	lw	a0,0(s5)
10006414:	26f70004 	addiu	s7,s7,4
10006418:	0c000540 	jal	10001500 <screen_rm>
1000641c:	00000000 	sll	zero,zero,0x0
10006420:	16f6ffb1 	bne	s7,s6,100062e8 <main_loop+0x3ec>
10006424:	00000000 	sll	zero,zero,0x0
10006428:	02608825 	or	s1,s3,zero
1000642c:	00001025 	or	v0,zero,zero
10006430:	24060001 	addiu	a2,zero,1
10006434:	24090014 	addiu	t1,zero,20
10006438:	241e0002 	addiu	s8,zero,2
1000643c:	8e240000 	lw	a0,0(s1)
10006440:	24560001 	addiu	s6,v0,1
10006444:	90820001 	lbu	v0,1(a0)
10006448:	00021600 	sll	v0,v0,0x18
1000644c:	00021603 	sra	v0,v0,0x18
10006450:	104600d3 	beq	v0,a2,100067a0 <main_loop+0x8a4>
10006454:	00000000 	sll	zero,zero,0x0
10006458:	26310004 	addiu	s1,s1,4
1000645c:	24020001 	addiu	v0,zero,1
10006460:	16defff6 	bne	s6,s8,1000643c <main_loop+0x540>
10006464:	00000000 	sll	zero,zero,0x0
10006468:	0c001120 	jal	10004480 <kbRespond_action>
1000646c:	00000000 	sll	zero,zero,0x0
10006470:	26940001 	addiu	s4,s4,1
10006474:	0c00051f 	jal	1000147c <screen_draw>
10006478:	00000000 	sll	zero,zero,0x0
1000647c:	02408825 	or	s1,s2,zero
10006480:	1000feff 	beqz	zero,10006080 <main_loop+0x184>
10006484:	00000000 	sll	zero,zero,0x0
10006488:	0260f025 	or	s8,s3,zero
1000648c:	02608825 	or	s1,s3,zero
10006490:	24080001 	addiu	t0,zero,1
10006494:	2417fff8 	addiu	s7,zero,-8
10006498:	24160004 	addiu	s6,zero,4
1000649c:	8e240000 	lw	a0,0(s1)
100064a0:	90820001 	lbu	v0,1(a0)
100064a4:	00021600 	sll	v0,v0,0x18
100064a8:	00021603 	sra	v0,v0,0x18
100064ac:	10480145 	beq	v0,t0,100069c4 <main_loop+0xac8>
100064b0:	00000000 	sll	zero,zero,0x0
100064b4:	8fa2004c 	lw	v0,76(sp)
100064b8:	26310004 	addiu	s1,s1,4
100064bc:	1451fff7 	bne	v0,s1,1000649c <main_loop+0x5a0>
100064c0:	00000000 	sll	zero,zero,0x0
100064c4:	24170001 	addiu	s7,zero,1
100064c8:	24110008 	addiu	s1,zero,8
100064cc:	24160004 	addiu	s6,zero,4
100064d0:	10000004 	beqz	zero,100064e4 <main_loop+0x5e8>
100064d4:	00000000 	sll	zero,zero,0x0
100064d8:	27de0004 	addiu	s8,s8,4
100064dc:	121eff30 	beq	s0,s8,100061a0 <main_loop+0x2a4>
100064e0:	00000000 	sll	zero,zero,0x0
100064e4:	8fc40000 	lw	a0,0(s8)
100064e8:	90820001 	lbu	v0,1(a0)
100064ec:	00021600 	sll	v0,v0,0x18
100064f0:	00021603 	sra	v0,v0,0x18
100064f4:	1457fff8 	bne	v0,s7,100064d8 <main_loop+0x5dc>
100064f8:	00000000 	sll	zero,zero,0x0
100064fc:	27a50038 	addiu	a1,sp,56
10006500:	0c000845 	jal	10002114 <cp_virtual_locate>
10006504:	00000000 	sll	zero,zero,0x0
10006508:	8fc40000 	lw	a0,0(s8)
1000650c:	0c0008ea 	jal	100023a8 <cp_virtual_isEnemy>
10006510:	00000000 	sll	zero,zero,0x0
10006514:	1040fff0 	beqz	v0,100064d8 <main_loop+0x5dc>
10006518:	00000000 	sll	zero,zero,0x0
1000651c:	0c000e09 	jal	10003824 <rand>
10006520:	00000000 	sll	zero,zero,0x0
10006524:	8fa3005c 	lw	v1,92(sp)
10006528:	00022fc3 	sra	a1,v0,0x1f
1000652c:	00430018 	mult	v0,v1
10006530:	00003810 	mfhi	a3
10006534:	00072183 	sra	a0,a3,0x6
10006538:	00852823 	subu	a1,a0,a1
1000653c:	00052140 	sll	a0,a1,0x5
10006540:	00852023 	subu	a0,a0,a1
10006544:	00042080 	sll	a0,a0,0x2
10006548:	00852021 	addu	a0,a0,a1
1000654c:	000420c0 	sll	a0,a0,0x3
10006550:	00441023 	subu	v0,v0,a0
10006554:	284200fa 	slti	v0,v0,250
10006558:	1040ffdf 	beqz	v0,100064d8 <main_loop+0x5dc>
1000655c:	00000000 	sll	zero,zero,0x0
10006560:	8fa50038 	lw	a1,56(sp)
10006564:	8fa2003c 	lw	v0,60(sp)
10006568:	8fc40000 	lw	a0,0(s8)
1000656c:	24a5001a 	addiu	a1,a1,26
10006570:	24420046 	addiu	v0,v0,70
10006574:	afa50020 	sw	a1,32(sp)
10006578:	afa20024 	sw	v0,36(sp)
1000657c:	afb1002c 	sw	s1,44(sp)
10006580:	afb60030 	sw	s6,48(sp)
10006584:	afa00028 	sw	zero,40(sp)
10006588:	0c00070e 	jal	10001c38 <battle_virtual_get_attack>
1000658c:	00000000 	sll	zero,zero,0x0
10006590:	8fa90030 	lw	t1,48(sp)
10006594:	8fa40020 	lw	a0,32(sp)
10006598:	8fa50024 	lw	a1,36(sp)
1000659c:	8fa60028 	lw	a2,40(sp)
100065a0:	8fa7002c 	lw	a3,44(sp)
100065a4:	afa90010 	sw	t1,16(sp)
100065a8:	afa20014 	sw	v0,20(sp)
100065ac:	afa20034 	sw	v0,52(sp)
100065b0:	0c000d58 	jal	10003560 <build_bullet>
100065b4:	00000000 	sll	zero,zero,0x0
100065b8:	00402025 	or	a0,v0,zero
100065bc:	0c0015a3 	jal	1000568c <__add.constprop.5>
100065c0:	00000000 	sll	zero,zero,0x0
100065c4:	1000ffc4 	beqz	zero,100064d8 <main_loop+0x5dc>
100065c8:	00000000 	sll	zero,zero,0x0
100065cc:	8ec40000 	lw	a0,0(s6)
100065d0:	0c0008bb 	jal	100022ec <cp_virtual_isBullet>
100065d4:	00000000 	sll	zero,zero,0x0
100065d8:	27a50038 	addiu	a1,sp,56
100065dc:	27a40020 	addiu	a0,sp,32
100065e0:	1040ff0a 	beqz	v0,1000620c <main_loop+0x310>
100065e4:	00000000 	sll	zero,zero,0x0
100065e8:	0c0014ff 	jal	100053fc <is_outside_collision>
100065ec:	00000000 	sll	zero,zero,0x0
100065f0:	27a40020 	addiu	a0,sp,32
100065f4:	27a50038 	addiu	a1,sp,56
100065f8:	1440ff04 	bnez	v0,1000620c <main_loop+0x310>
100065fc:	00000000 	sll	zero,zero,0x0
10006600:	0c0014b8 	jal	100052e0 <is_inside_collision>
10006604:	00000000 	sll	zero,zero,0x0
10006608:	1440ff00 	bnez	v0,1000620c <main_loop+0x310>
1000660c:	00000000 	sll	zero,zero,0x0
10006610:	8ec40000 	lw	a0,0(s6)
10006614:	0c000540 	jal	10001500 <screen_rm>
10006618:	00000000 	sll	zero,zero,0x0
1000661c:	1000ff1b 	beqz	zero,1000628c <main_loop+0x390>
10006620:	00000000 	sll	zero,zero,0x0
10006624:	afa80048 	sw	t0,72(sp)
10006628:	0c0008ea 	jal	100023a8 <cp_virtual_isEnemy>
1000662c:	00000000 	sll	zero,zero,0x0
10006630:	8fa80048 	lw	t0,72(sp)
10006634:	145e000c 	bne	v0,s8,10006668 <main_loop+0x76c>
10006638:	00000000 	sll	zero,zero,0x0
1000663c:	8d040000 	lw	a0,0(t0)
10006640:	27a50020 	addiu	a1,sp,32
10006644:	0c000845 	jal	10002114 <cp_virtual_locate>
10006648:	00000000 	sll	zero,zero,0x0
1000664c:	27a50020 	addiu	a1,sp,32
10006650:	27a40038 	addiu	a0,sp,56
10006654:	0c0014b8 	jal	100052e0 <is_inside_collision>
10006658:	00000000 	sll	zero,zero,0x0
1000665c:	8fa80048 	lw	t0,72(sp)
10006660:	1440000d 	bnez	v0,10006698 <main_loop+0x79c>
10006664:	00000000 	sll	zero,zero,0x0
10006668:	26b50001 	addiu	s5,s5,1
1000666c:	25080004 	addiu	t0,t0,4
10006670:	12b1ff1a 	beq	s5,s1,100062dc <main_loop+0x3e0>
10006674:	00000000 	sll	zero,zero,0x0
10006678:	8d040000 	lw	a0,0(t0)
1000667c:	90820001 	lbu	v0,1(a0)
10006680:	00021600 	sll	v0,v0,0x18
10006684:	00021603 	sra	v0,v0,0x18
10006688:	145efff7 	bne	v0,s8,10006668 <main_loop+0x76c>
1000668c:	00000000 	sll	zero,zero,0x0
10006690:	1000ffe4 	beqz	zero,10006624 <main_loop+0x728>
10006694:	00000000 	sll	zero,zero,0x0
10006698:	00154080 	sll	t0,s5,0x2
1000669c:	02684021 	addu	t0,s3,t0
100066a0:	8d090000 	lw	t1,0(t0)
100066a4:	8ee40000 	lw	a0,0(s7)
100066a8:	afa80058 	sw	t0,88(sp)
100066ac:	afa90048 	sw	t1,72(sp)
100066b0:	0c00070e 	jal	10001c38 <battle_virtual_get_attack>
100066b4:	00000000 	sll	zero,zero,0x0
100066b8:	8fa90048 	lw	t1,72(sp)
100066bc:	00402825 	or	a1,v0,zero
100066c0:	01202025 	or	a0,t1,zero
100066c4:	0c0006b8 	jal	10001ae0 <battle_virtual_hurt>
100066c8:	00000000 	sll	zero,zero,0x0
100066cc:	8ee40000 	lw	a0,0(s7)
100066d0:	0c000540 	jal	10001500 <screen_rm>
100066d4:	00000000 	sll	zero,zero,0x0
100066d8:	8fa80058 	lw	t0,88(sp)
100066dc:	8d040000 	lw	a0,0(t0)
100066e0:	afa80048 	sw	t0,72(sp)
100066e4:	0c0006e4 	jal	10001b90 <battle_virtual_isCrash>
100066e8:	00000000 	sll	zero,zero,0x0
100066ec:	8fa80048 	lw	t0,72(sp)
100066f0:	1040fefa 	beqz	v0,100062dc <main_loop+0x3e0>
100066f4:	00000000 	sll	zero,zero,0x0
100066f8:	8d040000 	lw	a0,0(t0)
100066fc:	0c000540 	jal	10001500 <screen_rm>
10006700:	00000000 	sll	zero,zero,0x0
10006704:	1000fef5 	beqz	zero,100062dc <main_loop+0x3e0>
10006708:	00000000 	sll	zero,zero,0x0
1000670c:	27a50020 	addiu	a1,sp,32
10006710:	0c000845 	jal	10002114 <cp_virtual_locate>
10006714:	00000000 	sll	zero,zero,0x0
10006718:	8ee40000 	lw	a0,0(s7)
1000671c:	0c00088f 	jal	1000223c <cp_virtual_isPlayer1>
10006720:	00000000 	sll	zero,zero,0x0
10006724:	10400085 	beqz	v0,1000693c <main_loop+0xa40>
10006728:	00000000 	sll	zero,zero,0x0
1000672c:	27a50038 	addiu	a1,sp,56
10006730:	27a40020 	addiu	a0,sp,32
10006734:	0c0016ed 	jal	10005bb4 <is_up_collision>
10006738:	00000000 	sll	zero,zero,0x0
1000673c:	144000ef 	bnez	v0,10006afc <main_loop+0xc00>
10006740:	00000000 	sll	zero,zero,0x0
10006744:	27a50038 	addiu	a1,sp,56
10006748:	27a40020 	addiu	a0,sp,32
1000674c:	0c00160b 	jal	1000582c <is_left_collision>
10006750:	00000000 	sll	zero,zero,0x0
10006754:	144000ee 	bnez	v0,10006b10 <main_loop+0xc14>
10006758:	00000000 	sll	zero,zero,0x0
1000675c:	27a50038 	addiu	a1,sp,56
10006760:	27a40020 	addiu	a0,sp,32
10006764:	0c001779 	jal	10005de4 <is_down_collision>
10006768:	00000000 	sll	zero,zero,0x0
1000676c:	144000ed 	bnez	v0,10006b24 <main_loop+0xc28>
10006770:	00000000 	sll	zero,zero,0x0
10006774:	27a50038 	addiu	a1,sp,56
10006778:	27a40020 	addiu	a0,sp,32
1000677c:	0c00169b 	jal	10005a6c <is_right_collision>
10006780:	00000000 	sll	zero,zero,0x0
10006784:	1040fecc 	beqz	v0,100062b8 <main_loop+0x3bc>
10006788:	00000000 	sll	zero,zero,0x0
1000678c:	2404002d 	addiu	a0,zero,45
10006790:	0c001162 	jal	10004588 <kbRespond_disable>
10006794:	00000000 	sll	zero,zero,0x0
10006798:	1000fec7 	beqz	zero,100062b8 <main_loop+0x3bc>
1000679c:	00000000 	sll	zero,zero,0x0
100067a0:	afa90058 	sw	t1,88(sp)
100067a4:	afa60048 	sw	a2,72(sp)
100067a8:	0c000874 	jal	100021d0 <cp_virtual_isPlayer>
100067ac:	00000000 	sll	zero,zero,0x0
100067b0:	8fa60048 	lw	a2,72(sp)
100067b4:	8fa90058 	lw	t1,88(sp)
100067b8:	1446ff27 	bne	v0,a2,10006458 <main_loop+0x55c>
100067bc:	00000000 	sll	zero,zero,0x0
100067c0:	8e240000 	lw	a0,0(s1)
100067c4:	27a50038 	addiu	a1,sp,56
100067c8:	0c000845 	jal	10002114 <cp_virtual_locate>
100067cc:	00000000 	sll	zero,zero,0x0
100067d0:	00165080 	sll	t2,s6,0x2
100067d4:	026a5021 	addu	t2,s3,t2
100067d8:	02c0b825 	or	s7,s6,zero
100067dc:	8fa90058 	lw	t1,88(sp)
100067e0:	8fa60048 	lw	a2,72(sp)
100067e4:	10000005 	beqz	zero,100067fc <main_loop+0x900>
100067e8:	00000000 	sll	zero,zero,0x0
100067ec:	26f70001 	addiu	s7,s7,1
100067f0:	254a0004 	addiu	t2,t2,4
100067f4:	12e9ff18 	beq	s7,t1,10006458 <main_loop+0x55c>
100067f8:	00000000 	sll	zero,zero,0x0
100067fc:	8d440000 	lw	a0,0(t2)
10006800:	90820001 	lbu	v0,1(a0)
10006804:	00021600 	sll	v0,v0,0x18
10006808:	00021603 	sra	v0,v0,0x18
1000680c:	1446fff7 	bne	v0,a2,100067ec <main_loop+0x8f0>
10006810:	00000000 	sll	zero,zero,0x0
10006814:	afa90060 	sw	t1,96(sp)
10006818:	afa60058 	sw	a2,88(sp)
1000681c:	afaa0048 	sw	t2,72(sp)
10006820:	0c0008ea 	jal	100023a8 <cp_virtual_isEnemy>
10006824:	00000000 	sll	zero,zero,0x0
10006828:	8fa60058 	lw	a2,88(sp)
1000682c:	8faa0048 	lw	t2,72(sp)
10006830:	8fa90060 	lw	t1,96(sp)
10006834:	1446ffed 	bne	v0,a2,100067ec <main_loop+0x8f0>
10006838:	00000000 	sll	zero,zero,0x0
1000683c:	8d440000 	lw	a0,0(t2)
10006840:	27a50020 	addiu	a1,sp,32
10006844:	0c000845 	jal	10002114 <cp_virtual_locate>
10006848:	00000000 	sll	zero,zero,0x0
1000684c:	27a50020 	addiu	a1,sp,32
10006850:	27a40038 	addiu	a0,sp,56
10006854:	0c0014ff 	jal	100053fc <is_outside_collision>
10006858:	00000000 	sll	zero,zero,0x0
1000685c:	8faa0048 	lw	t2,72(sp)
10006860:	8fa60058 	lw	a2,88(sp)
10006864:	8fa90060 	lw	t1,96(sp)
10006868:	1040ffe0 	beqz	v0,100067ec <main_loop+0x8f0>
1000686c:	00000000 	sll	zero,zero,0x0
10006870:	00174080 	sll	t0,s7,0x2
10006874:	0268b821 	addu	s7,s3,t0
10006878:	8e2a0000 	lw	t2,0(s1)
1000687c:	8ee40000 	lw	a0,0(s7)
10006880:	afaa0048 	sw	t2,72(sp)
10006884:	0c000767 	jal	10001d9c <battle_virtual_get_hp>
10006888:	00000000 	sll	zero,zero,0x0
1000688c:	8faa0048 	lw	t2,72(sp)
10006890:	00402825 	or	a1,v0,zero
10006894:	01402025 	or	a0,t2,zero
10006898:	0c0006b8 	jal	10001ae0 <battle_virtual_hurt>
1000689c:	00000000 	sll	zero,zero,0x0
100068a0:	8ee40000 	lw	a0,0(s7)
100068a4:	0c000540 	jal	10001500 <screen_rm>
100068a8:	00000000 	sll	zero,zero,0x0
100068ac:	8e240000 	lw	a0,0(s1)
100068b0:	0c0006e4 	jal	10001b90 <battle_virtual_isCrash>
100068b4:	00000000 	sll	zero,zero,0x0
100068b8:	8fa60058 	lw	a2,88(sp)
100068bc:	8fa90060 	lw	t1,96(sp)
100068c0:	1040fee5 	beqz	v0,10006458 <main_loop+0x55c>
100068c4:	00000000 	sll	zero,zero,0x0
100068c8:	8e240000 	lw	a0,0(s1)
100068cc:	afa90058 	sw	t1,88(sp)
100068d0:	afa60048 	sw	a2,72(sp)
100068d4:	0c000540 	jal	10001500 <screen_rm>
100068d8:	00000000 	sll	zero,zero,0x0
100068dc:	8fa60048 	lw	a2,72(sp)
100068e0:	8fa90058 	lw	t1,88(sp)
100068e4:	1000fedc 	beqz	zero,10006458 <main_loop+0x55c>
100068e8:	00000000 	sll	zero,zero,0x0
100068ec:	8fa70064 	lw	a3,100(sp)
100068f0:	8ce20018 	lw	v0,24(a3)
100068f4:	8ce40010 	lw	a0,16(a3)
100068f8:	8ce30014 	lw	v1,20(a3)
100068fc:	8ce50004 	lw	a1,4(a3)
10006900:	8ce60008 	lw	a2,8(a3)
10006904:	8ce7000c 	lw	a3,12(a3)
10006908:	afa20018 	sw	v0,24(sp)
1000690c:	8fa20068 	lw	v0,104(sp)
10006910:	afa40010 	sw	a0,16(sp)
10006914:	afa30014 	sw	v1,20(sp)
10006918:	01002025 	or	a0,t0,zero
1000691c:	ac487204 	sw	t0,29188(v0)
10006920:	0c0013b0 	jal	10004ec0 <build_planeI>
10006924:	00000000 	sll	zero,zero,0x0
10006928:	00402025 	or	a0,v0,zero
1000692c:	0c0015a3 	jal	1000568c <__add.constprop.5>
10006930:	00000000 	sll	zero,zero,0x0
10006934:	1000fe10 	beqz	zero,10006178 <main_loop+0x27c>
10006938:	00000000 	sll	zero,zero,0x0
1000693c:	8ee40000 	lw	a0,0(s7)
10006940:	0c0008a5 	jal	10002294 <cp_virtual_isPlayer2>
10006944:	00000000 	sll	zero,zero,0x0
10006948:	1040fe5b 	beqz	v0,100062b8 <main_loop+0x3bc>
1000694c:	00000000 	sll	zero,zero,0x0
10006950:	27a50038 	addiu	a1,sp,56
10006954:	27a40020 	addiu	a0,sp,32
10006958:	0c0016ed 	jal	10005bb4 <is_up_collision>
1000695c:	00000000 	sll	zero,zero,0x0
10006960:	14400075 	bnez	v0,10006b38 <main_loop+0xc3c>
10006964:	00000000 	sll	zero,zero,0x0
10006968:	27a50038 	addiu	a1,sp,56
1000696c:	27a40020 	addiu	a0,sp,32
10006970:	0c00160b 	jal	1000582c <is_left_collision>
10006974:	00000000 	sll	zero,zero,0x0
10006978:	14400074 	bnez	v0,10006b4c <main_loop+0xc50>
1000697c:	00000000 	sll	zero,zero,0x0
10006980:	27a50038 	addiu	a1,sp,56
10006984:	27a40020 	addiu	a0,sp,32
10006988:	0c001779 	jal	10005de4 <is_down_collision>
1000698c:	00000000 	sll	zero,zero,0x0
10006990:	14400073 	bnez	v0,10006b60 <main_loop+0xc64>
10006994:	00000000 	sll	zero,zero,0x0
10006998:	27a50038 	addiu	a1,sp,56
1000699c:	27a40020 	addiu	a0,sp,32
100069a0:	0c00169b 	jal	10005a6c <is_right_collision>
100069a4:	00000000 	sll	zero,zero,0x0
100069a8:	1040fe43 	beqz	v0,100062b8 <main_loop+0x3bc>
100069ac:	00000000 	sll	zero,zero,0x0
100069b0:	24040033 	addiu	a0,zero,51
100069b4:	0c001162 	jal	10004588 <kbRespond_disable>
100069b8:	00000000 	sll	zero,zero,0x0
100069bc:	1000fe3e 	beqz	zero,100062b8 <main_loop+0x3bc>
100069c0:	00000000 	sll	zero,zero,0x0
100069c4:	27a50038 	addiu	a1,sp,56
100069c8:	afa80048 	sw	t0,72(sp)
100069cc:	0c000845 	jal	10002114 <cp_virtual_locate>
100069d0:	00000000 	sll	zero,zero,0x0
100069d4:	8e240000 	lw	a0,0(s1)
100069d8:	0c000874 	jal	100021d0 <cp_virtual_isPlayer>
100069dc:	00000000 	sll	zero,zero,0x0
100069e0:	8fa80048 	lw	t0,72(sp)
100069e4:	1040feb3 	beqz	v0,100064b4 <main_loop+0x5b8>
100069e8:	00000000 	sll	zero,zero,0x0
100069ec:	8fa50038 	lw	a1,56(sp)
100069f0:	8fa2003c 	lw	v0,60(sp)
100069f4:	8e240000 	lw	a0,0(s1)
100069f8:	24a50028 	addiu	a1,a1,40
100069fc:	2442fff6 	addiu	v0,v0,-10
10006a00:	afa50020 	sw	a1,32(sp)
10006a04:	afa20024 	sw	v0,36(sp)
10006a08:	afb7002c 	sw	s7,44(sp)
10006a0c:	afb60030 	sw	s6,48(sp)
10006a10:	afa00028 	sw	zero,40(sp)
10006a14:	0c00070e 	jal	10001c38 <battle_virtual_get_attack>
10006a18:	00000000 	sll	zero,zero,0x0
10006a1c:	8fab0030 	lw	t3,48(sp)
10006a20:	8fa40020 	lw	a0,32(sp)
10006a24:	8fa50024 	lw	a1,36(sp)
10006a28:	8fa60028 	lw	a2,40(sp)
10006a2c:	8fa7002c 	lw	a3,44(sp)
10006a30:	afab0010 	sw	t3,16(sp)
10006a34:	afa20014 	sw	v0,20(sp)
10006a38:	afa20034 	sw	v0,52(sp)
10006a3c:	0c000d58 	jal	10003560 <build_bullet>
10006a40:	00000000 	sll	zero,zero,0x0
10006a44:	00402025 	or	a0,v0,zero
10006a48:	0c0015a3 	jal	1000568c <__add.constprop.5>
10006a4c:	00000000 	sll	zero,zero,0x0
10006a50:	8fa80048 	lw	t0,72(sp)
10006a54:	1000fe97 	beqz	zero,100064b4 <main_loop+0x5b8>
10006a58:	00000000 	sll	zero,zero,0x0
10006a5c:	8fa70074 	lw	a3,116(sp)
10006a60:	8ce20018 	lw	v0,24(a3)
10006a64:	8ce40010 	lw	a0,16(a3)
10006a68:	8ce30014 	lw	v1,20(a3)
10006a6c:	8ce50004 	lw	a1,4(a3)
10006a70:	8ce60008 	lw	a2,8(a3)
10006a74:	8ce7000c 	lw	a3,12(a3)
10006a78:	afa20018 	sw	v0,24(sp)
10006a7c:	8fa2007c 	lw	v0,124(sp)
10006a80:	afa40010 	sw	a0,16(sp)
10006a84:	afa30014 	sw	v1,20(sp)
10006a88:	01002025 	or	a0,t0,zero
10006a8c:	ac4871cc 	sw	t0,29132(v0)
10006a90:	0c000f14 	jal	10003c50 <build_planeT>
10006a94:	00000000 	sll	zero,zero,0x0
10006a98:	00402025 	or	a0,v0,zero
10006a9c:	0c0015a3 	jal	1000568c <__add.constprop.5>
10006aa0:	00000000 	sll	zero,zero,0x0
10006aa4:	1000fdb4 	beqz	zero,10006178 <main_loop+0x27c>
10006aa8:	00000000 	sll	zero,zero,0x0
10006aac:	8fa70078 	lw	a3,120(sp)
10006ab0:	8ce20018 	lw	v0,24(a3)
10006ab4:	8ce40010 	lw	a0,16(a3)
10006ab8:	8ce30014 	lw	v1,20(a3)
10006abc:	8ce50004 	lw	a1,4(a3)
10006ac0:	8ce60008 	lw	a2,8(a3)
10006ac4:	8ce7000c 	lw	a3,12(a3)
10006ac8:	afa20018 	sw	v0,24(sp)
10006acc:	8fa20080 	lw	v0,128(sp)
10006ad0:	afa40010 	sw	a0,16(sp)
10006ad4:	afa30014 	sw	v1,20(sp)
10006ad8:	01002025 	or	a0,t0,zero
10006adc:	ac4871e8 	sw	t0,29160(v0)
10006ae0:	0c000200 	jal	10000800 <build_planeX>
10006ae4:	00000000 	sll	zero,zero,0x0
10006ae8:	00402025 	or	a0,v0,zero
10006aec:	0c0015a3 	jal	1000568c <__add.constprop.5>
10006af0:	00000000 	sll	zero,zero,0x0
10006af4:	1000fda0 	beqz	zero,10006178 <main_loop+0x27c>
10006af8:	00000000 	sll	zero,zero,0x0
10006afc:	2404001e 	addiu	a0,zero,30
10006b00:	0c001162 	jal	10004588 <kbRespond_disable>
10006b04:	00000000 	sll	zero,zero,0x0
10006b08:	1000fdeb 	beqz	zero,100062b8 <main_loop+0x3bc>
10006b0c:	00000000 	sll	zero,zero,0x0
10006b10:	2404002b 	addiu	a0,zero,43
10006b14:	0c001162 	jal	10004588 <kbRespond_disable>
10006b18:	00000000 	sll	zero,zero,0x0
10006b1c:	1000fde6 	beqz	zero,100062b8 <main_loop+0x3bc>
10006b20:	00000000 	sll	zero,zero,0x0
10006b24:	2404002c 	addiu	a0,zero,44
10006b28:	0c001162 	jal	10004588 <kbRespond_disable>
10006b2c:	00000000 	sll	zero,zero,0x0
10006b30:	1000fde1 	beqz	zero,100062b8 <main_loop+0x3bc>
10006b34:	00000000 	sll	zero,zero,0x0
10006b38:	24040024 	addiu	a0,zero,36
10006b3c:	0c001162 	jal	10004588 <kbRespond_disable>
10006b40:	00000000 	sll	zero,zero,0x0
10006b44:	1000fddc 	beqz	zero,100062b8 <main_loop+0x3bc>
10006b48:	00000000 	sll	zero,zero,0x0
10006b4c:	24040031 	addiu	a0,zero,49
10006b50:	0c001162 	jal	10004588 <kbRespond_disable>
10006b54:	00000000 	sll	zero,zero,0x0
10006b58:	1000fdd7 	beqz	zero,100062b8 <main_loop+0x3bc>
10006b5c:	00000000 	sll	zero,zero,0x0
10006b60:	24040032 	addiu	a0,zero,50
10006b64:	0c001162 	jal	10004588 <kbRespond_disable>
10006b68:	00000000 	sll	zero,zero,0x0
10006b6c:	1000fdd2 	beqz	zero,100062b8 <main_loop+0x3bc>
10006b70:	00000000 	sll	zero,zero,0x0
	...

Disassembly of section .text.get_stat:

10006b80 <get_stat>:
10006b80:	3c024000 	lui	v0,0x4000
10006b84:	90421008 	lbu	v0,4104(v0)
10006b88:	00021600 	sll	v0,v0,0x18
10006b8c:	00021603 	sra	v0,v0,0x18
10006b90:	03e00008 	jr	ra
10006b94:	00000000 	sll	zero,zero,0x0

Disassembly of section .text._trm_init:

10006b98 <_trm_init>:
10006b98:	27bdffe8 	addiu	sp,sp,-24
10006b9c:	afbf0014 	sw	ra,20(sp)
10006ba0:	0c001be8 	jal	10006fa0 <main>
10006ba4:	00000000 	sll	zero,zero,0x0
10006ba8:	00021600 	sll	v0,v0,0x18
10006bac:	00021603 	sra	v0,v0,0x18
10006bb0:	3c034000 	lui	v1,0x4000
10006bb4:	a0620000 	sb	v0,0(v1)
10006bb8:	1000ffff 	beqz	zero,10006bb8 <_trm_init+0x20>
10006bbc:	00000000 	sll	zero,zero,0x0

Disassembly of section .text.in_byte:

10006bc0 <in_byte>:
10006bc0:	27bdffe8 	addiu	sp,sp,-24
10006bc4:	afbf0014 	sw	ra,20(sp)
10006bc8:	0c001ae0 	jal	10006b80 <_etext>
10006bcc:	00000000 	sll	zero,zero,0x0
10006bd0:	30420001 	andi	v0,v0,0x1
10006bd4:	10400009 	beqz	v0,10006bfc <in_byte+0x3c>
10006bd8:	00000000 	sll	zero,zero,0x0
10006bdc:	3c024000 	lui	v0,0x4000
10006be0:	90421000 	lbu	v0,4096(v0)
10006be4:	8fbf0014 	lw	ra,20(sp)
10006be8:	00021600 	sll	v0,v0,0x18
10006bec:	00021603 	sra	v0,v0,0x18
10006bf0:	27bd0018 	addiu	sp,sp,24
10006bf4:	03e00008 	jr	ra
10006bf8:	00000000 	sll	zero,zero,0x0
10006bfc:	8fbf0014 	lw	ra,20(sp)
10006c00:	00001025 	or	v0,zero,zero
10006c04:	27bd0018 	addiu	sp,sp,24
10006c08:	03e00008 	jr	ra
10006c0c:	00000000 	sll	zero,zero,0x0

Disassembly of section .text._putc:

10006c10 <_putc>:
10006c10:	27bdffe8 	addiu	sp,sp,-24
10006c14:	2402000a 	addiu	v0,zero,10
10006c18:	afbf0014 	sw	ra,20(sp)
10006c1c:	1082000c 	beq	a0,v0,10006c50 <_putc+0x40>
10006c20:	00000000 	sll	zero,zero,0x0
10006c24:	0c001ae0 	jal	10006b80 <_etext>
10006c28:	00000000 	sll	zero,zero,0x0
10006c2c:	30420008 	andi	v0,v0,0x8
10006c30:	1440fffc 	bnez	v0,10006c24 <_putc+0x14>
10006c34:	00000000 	sll	zero,zero,0x0
10006c38:	3c024000 	lui	v0,0x4000
10006c3c:	a0441004 	sb	a0,4100(v0)
10006c40:	8fbf0014 	lw	ra,20(sp)
10006c44:	27bd0018 	addiu	sp,sp,24
10006c48:	03e00008 	jr	ra
10006c4c:	00000000 	sll	zero,zero,0x0
10006c50:	0c001ae0 	jal	10006b80 <_etext>
10006c54:	00000000 	sll	zero,zero,0x0
10006c58:	30420008 	andi	v0,v0,0x8
10006c5c:	1440fffc 	bnez	v0,10006c50 <_putc+0x40>
10006c60:	00000000 	sll	zero,zero,0x0
10006c64:	3c024000 	lui	v0,0x4000
10006c68:	2403000d 	addiu	v1,zero,13
10006c6c:	a0431004 	sb	v1,4100(v0)
10006c70:	1000ffec 	beqz	zero,10006c24 <_putc+0x14>
10006c74:	00000000 	sll	zero,zero,0x0

Disassembly of section .text._halt:

10006c78 <_halt>:
10006c78:	00042600 	sll	a0,a0,0x18
10006c7c:	00042603 	sra	a0,a0,0x18
10006c80:	3c024000 	lui	v0,0x4000
10006c84:	a0440000 	sb	a0,0(v0)
10006c88:	1000ffff 	beqz	zero,10006c88 <_halt+0x10>
10006c8c:	00000000 	sll	zero,zero,0x0

Disassembly of section .text.irq_handle:

10006c90 <irq_handle>:
10006c90:	27bdff50 	addiu	sp,sp,-176
10006c94:	00801025 	or	v0,a0,zero
10006c98:	afbf00ac 	sw	ra,172(sp)
10006c9c:	afb000a8 	sw	s0,168(sp)
10006ca0:	8c990004 	lw	t9,4(a0)
10006ca4:	8c980008 	lw	t8,8(a0)
10006ca8:	8c8f000c 	lw	t7,12(a0)
10006cac:	8c8e0010 	lw	t6,16(a0)
10006cb0:	8c8d0014 	lw	t5,20(a0)
10006cb4:	8c8c0018 	lw	t4,24(a0)
10006cb8:	8c8b001c 	lw	t3,28(a0)
10006cbc:	8c8a0020 	lw	t2,32(a0)
10006cc0:	8c890024 	lw	t1,36(a0)
10006cc4:	8c880028 	lw	t0,40(a0)
10006cc8:	8c87002c 	lw	a3,44(a0)
10006ccc:	8c860030 	lw	a2,48(a0)
10006cd0:	8c850034 	lw	a1,52(a0)
10006cd4:	8c43003c 	lw	v1,60(v0)
10006cd8:	8c840038 	lw	a0,56(a0)
10006cdc:	8c500000 	lw	s0,0(v0)
10006ce0:	afb90014 	sw	t9,20(sp)
10006ce4:	afb00010 	sw	s0,16(sp)
10006ce8:	afb80018 	sw	t8,24(sp)
10006cec:	afaf001c 	sw	t7,28(sp)
10006cf0:	afae0020 	sw	t6,32(sp)
10006cf4:	afad0024 	sw	t5,36(sp)
10006cf8:	afac0028 	sw	t4,40(sp)
10006cfc:	afab002c 	sw	t3,44(sp)
10006d00:	afaa0030 	sw	t2,48(sp)
10006d04:	afa90034 	sw	t1,52(sp)
10006d08:	afa80038 	sw	t0,56(sp)
10006d0c:	afa7003c 	sw	a3,60(sp)
10006d10:	afa60040 	sw	a2,64(sp)
10006d14:	afa50044 	sw	a1,68(sp)
10006d18:	8c480068 	lw	t0,104(v0)
10006d1c:	8c46006c 	lw	a2,108(v0)
10006d20:	8c450070 	lw	a1,112(v0)
10006d24:	afa40048 	sw	a0,72(sp)
10006d28:	afa3004c 	sw	v1,76(sp)
10006d2c:	8c440074 	lw	a0,116(v0)
10006d30:	8c590044 	lw	t9,68(v0)
10006d34:	8c580048 	lw	t8,72(v0)
10006d38:	8c4f004c 	lw	t7,76(v0)
10006d3c:	8c4e0050 	lw	t6,80(v0)
10006d40:	8c4d0054 	lw	t5,84(v0)
10006d44:	8c4c0058 	lw	t4,88(v0)
10006d48:	8c4b005c 	lw	t3,92(v0)
10006d4c:	8c4a0060 	lw	t2,96(v0)
10006d50:	8c490064 	lw	t1,100(v0)
10006d54:	8c430078 	lw	v1,120(v0)
10006d58:	8c500040 	lw	s0,64(v0)
10006d5c:	8c47007c 	lw	a3,124(v0)
10006d60:	afa80078 	sw	t0,120(sp)
10006d64:	afa6007c 	sw	a2,124(sp)
10006d68:	afa50080 	sw	a1,128(sp)
10006d6c:	afa40084 	sw	a0,132(sp)
10006d70:	afb00050 	sw	s0,80(sp)
10006d74:	afb90054 	sw	t9,84(sp)
10006d78:	afb80058 	sw	t8,88(sp)
10006d7c:	afaf005c 	sw	t7,92(sp)
10006d80:	afae0060 	sw	t6,96(sp)
10006d84:	afad0064 	sw	t5,100(sp)
10006d88:	afac0068 	sw	t4,104(sp)
10006d8c:	afab006c 	sw	t3,108(sp)
10006d90:	afaa0070 	sw	t2,112(sp)
10006d94:	afa90074 	sw	t1,116(sp)
10006d98:	afa30088 	sw	v1,136(sp)
10006d9c:	8c460080 	lw	a2,128(v0)
10006da0:	8c480084 	lw	t0,132(v0)
10006da4:	00062882 	srl	a1,a2,0x2
10006da8:	8c440088 	lw	a0,136(v0)
10006dac:	30a5003f 	andi	a1,a1,0x3f
10006db0:	2ca3000e 	sltiu	v1,a1,14
10006db4:	afa7008c 	sw	a3,140(sp)
10006db8:	afa60090 	sw	a2,144(sp)
10006dbc:	afa80094 	sw	t0,148(sp)
10006dc0:	afa40098 	sw	a0,152(sp)
10006dc4:	afa0009c 	sw	zero,156(sp)
10006dc8:	10600063 	beqz	v1,10006f58 <irq_handle+0x2c8>
10006dcc:	00000000 	sll	zero,zero,0x0
10006dd0:	3c041000 	lui	a0,0x1000
10006dd4:	00051880 	sll	v1,a1,0x2
10006dd8:	24847334 	addiu	a0,a0,29492
10006ddc:	00831821 	addu	v1,a0,v1
10006de0:	8c630000 	lw	v1,0(v1)
10006de4:	00600008 	jr	v1
10006de8:	00000000 	sll	zero,zero,0x0
10006dec:	24e70004 	addiu	a3,a3,4
10006df0:	ac47007c 	sw	a3,124(v0)
10006df4:	24020006 	addiu	v0,zero,6
10006df8:	afa2009c 	sw	v0,156(sp)
10006dfc:	3c02100e 	lui	v0,0x100e
10006e00:	8c427250 	lw	v0,29264(v0)
10006e04:	10400007 	beqz	v0,10006e24 <irq_handle+0x194>
10006e08:	00000000 	sll	zero,zero,0x0
10006e0c:	8fa4009c 	lw	a0,156(sp)
10006e10:	8fa500a0 	lw	a1,160(sp)
10006e14:	8fa600a4 	lw	a2,164(sp)
10006e18:	27a70010 	addiu	a3,sp,16
10006e1c:	0040f809 	jalr	v0
10006e20:	00000000 	sll	zero,zero,0x0
10006e24:	8fbf00ac 	lw	ra,172(sp)
10006e28:	8fb000a8 	lw	s0,168(sp)
10006e2c:	27bd00b0 	addiu	sp,sp,176
10006e30:	03e00008 	jr	ra
10006e34:	00000000 	sll	zero,zero,0x0
10006e38:	00c82824 	and	a1,a2,t0
10006e3c:	00052a02 	srl	a1,a1,0x8
10006e40:	30a500ff 	andi	a1,a1,0xff
10006e44:	24020080 	addiu	v0,zero,128
10006e48:	14a2004c 	bne	a1,v0,10006f7c <irq_handle+0x2ec>
10006e4c:	00000000 	sll	zero,zero,0x0
10006e50:	24020001 	addiu	v0,zero,1
10006e54:	afa2009c 	sw	v0,156(sp)
10006e58:	1000ffe8 	beqz	zero,10006dfc <irq_handle+0x16c>
10006e5c:	00000000 	sll	zero,zero,0x0
10006e60:	3c041000 	lui	a0,0x1000
10006e64:	248472b8 	addiu	a0,a0,29368
10006e68:	0c000cb5 	jal	100032d4 <printf>
10006e6c:	00000000 	sll	zero,zero,0x0
10006e70:	8fa5008c 	lw	a1,140(sp)
10006e74:	3c041000 	lui	a0,0x1000
10006e78:	248472c0 	addiu	a0,a0,29376
10006e7c:	0c000cb5 	jal	100032d4 <printf>
10006e80:	00000000 	sll	zero,zero,0x0
10006e84:	8fa50098 	lw	a1,152(sp)
10006e88:	3c041000 	lui	a0,0x1000
10006e8c:	248472d0 	addiu	a0,a0,29392
10006e90:	0c000cb5 	jal	100032d4 <printf>
10006e94:	00000000 	sll	zero,zero,0x0
10006e98:	2404ffff 	addiu	a0,zero,-1
10006e9c:	0c001b1e 	jal	10006c78 <_halt>
10006ea0:	00000000 	sll	zero,zero,0x0
10006ea4:	1000ffd5 	beqz	zero,10006dfc <irq_handle+0x16c>
10006ea8:	00000000 	sll	zero,zero,0x0
10006eac:	3c041000 	lui	a0,0x1000
10006eb0:	248472e4 	addiu	a0,a0,29412
10006eb4:	1000ffec 	beqz	zero,10006e68 <irq_handle+0x1d8>
10006eb8:	00000000 	sll	zero,zero,0x0
10006ebc:	24e70004 	addiu	a3,a3,4
10006ec0:	3c041000 	lui	a0,0x1000
10006ec4:	ac47007c 	sw	a3,124(v0)
10006ec8:	24020006 	addiu	v0,zero,6
10006ecc:	248472ec 	addiu	a0,a0,29420
10006ed0:	afa2009c 	sw	v0,156(sp)
10006ed4:	0c000cb5 	jal	100032d4 <printf>
10006ed8:	00000000 	sll	zero,zero,0x0
10006edc:	8fa5008c 	lw	a1,140(sp)
10006ee0:	3c041000 	lui	a0,0x1000
10006ee4:	248472c0 	addiu	a0,a0,29376
10006ee8:	0c000cb5 	jal	100032d4 <printf>
10006eec:	00000000 	sll	zero,zero,0x0
10006ef0:	1000ffc2 	beqz	zero,10006dfc <irq_handle+0x16c>
10006ef4:	00000000 	sll	zero,zero,0x0
10006ef8:	24e70004 	addiu	a3,a3,4
10006efc:	3c041000 	lui	a0,0x1000
10006f00:	248472f8 	addiu	a0,a0,29432
10006f04:	ac47007c 	sw	a3,124(v0)
10006f08:	1000fff2 	beqz	zero,10006ed4 <irq_handle+0x244>
10006f0c:	00000000 	sll	zero,zero,0x0
10006f10:	3c041000 	lui	a0,0x1000
10006f14:	24847300 	addiu	a0,a0,29440
10006f18:	0c000cb5 	jal	100032d4 <printf>
10006f1c:	00000000 	sll	zero,zero,0x0
10006f20:	8fa5008c 	lw	a1,140(sp)
10006f24:	3c041000 	lui	a0,0x1000
10006f28:	248472c0 	addiu	a0,a0,29376
10006f2c:	0c000cb5 	jal	100032d4 <printf>
10006f30:	00000000 	sll	zero,zero,0x0
10006f34:	00002025 	or	a0,zero,zero
10006f38:	0c001b1e 	jal	10006c78 <_halt>
10006f3c:	00000000 	sll	zero,zero,0x0
10006f40:	1000ffae 	beqz	zero,10006dfc <irq_handle+0x16c>
10006f44:	00000000 	sll	zero,zero,0x0
10006f48:	3c041000 	lui	a0,0x1000
10006f4c:	24847318 	addiu	a0,a0,29464
10006f50:	1000fff1 	beqz	zero,10006f18 <irq_handle+0x288>
10006f54:	00000000 	sll	zero,zero,0x0
10006f58:	3c041000 	lui	a0,0x1000
10006f5c:	24847324 	addiu	a0,a0,29476
10006f60:	0c000cb5 	jal	100032d4 <printf>
10006f64:	00000000 	sll	zero,zero,0x0
10006f68:	2404ffff 	addiu	a0,zero,-1
10006f6c:	0c001b1e 	jal	10006c78 <_halt>
10006f70:	00000000 	sll	zero,zero,0x0
10006f74:	1000ffa1 	beqz	zero,10006dfc <irq_handle+0x16c>
10006f78:	00000000 	sll	zero,zero,0x0
10006f7c:	3c041000 	lui	a0,0x1000
10006f80:	248472a8 	addiu	a0,a0,29352
10006f84:	0c000cb5 	jal	100032d4 <printf>
10006f88:	00000000 	sll	zero,zero,0x0
10006f8c:	2404ffff 	addiu	a0,zero,-1
10006f90:	0c001b1e 	jal	10006c78 <_halt>
10006f94:	00000000 	sll	zero,zero,0x0
10006f98:	1000ff98 	beqz	zero,10006dfc <irq_handle+0x16c>
10006f9c:	00000000 	sll	zero,zero,0x0

Disassembly of section .text.startup:

10006fa0 <main>:
10006fa0:	27bdffe8 	addiu	sp,sp,-24
10006fa4:	afbf0014 	sw	ra,20(sp)
10006fa8:	0c001c97 	jal	1000725c <_ioe_init>
10006fac:	00000000 	sll	zero,zero,0x0
10006fb0:	10400004 	beqz	v0,10006fc4 <main+0x24>
10006fb4:	00000000 	sll	zero,zero,0x0
10006fb8:	24040001 	addiu	a0,zero,1
10006fbc:	0c001b1e 	jal	10006c78 <_halt>
10006fc0:	00000000 	sll	zero,zero,0x0
10006fc4:	0c0017bf 	jal	10005efc <main_loop>
10006fc8:	00000000 	sll	zero,zero,0x0
10006fcc:	8fbf0014 	lw	ra,20(sp)
10006fd0:	00001025 	or	v0,zero,zero
10006fd4:	27bd0018 	addiu	sp,sp,24
10006fd8:	03e00008 	jr	ra
10006fdc:	00000000 	sll	zero,zero,0x0

Disassembly of section .text.video_read:

10006fe0 <video_read>:
10006fe0:	24020001 	addiu	v0,zero,1
10006fe4:	10820004 	beq	a0,v0,10006ff8 <video_read+0x18>
10006fe8:	00000000 	sll	zero,zero,0x0
10006fec:	00001025 	or	v0,zero,zero
10006ff0:	03e00008 	jr	ra
10006ff4:	00000000 	sll	zero,zero,0x0
10006ff8:	24020190 	addiu	v0,zero,400
10006ffc:	aca20000 	sw	v0,0(a1)
10007000:	2402012c 	addiu	v0,zero,300
10007004:	aca20004 	sw	v0,4(a1)
10007008:	24020008 	addiu	v0,zero,8
1000700c:	03e00008 	jr	ra
10007010:	00000000 	sll	zero,zero,0x0

Disassembly of section .text.timer_read:

10007014 <timer_read>:
10007014:	24020001 	addiu	v0,zero,1
10007018:	10820006 	beq	a0,v0,10007034 <timer_read+0x20>
1000701c:	00000000 	sll	zero,zero,0x0
10007020:	38840002 	xori	a0,a0,0x2
10007024:	24020018 	addiu	v0,zero,24
10007028:	0004100b 	movn	v0,zero,a0
1000702c:	03e00008 	jr	ra
10007030:	00000000 	sll	zero,zero,0x0
10007034:	3c041021 	lui	a0,0x1021
10007038:	8c8384f4 	lw	v1,-31500(a0)
1000703c:	24020008 	addiu	v0,zero,8
10007040:	2463000a 	addiu	v1,v1,10
10007044:	ac8384f4 	sw	v1,-31500(a0)
10007048:	aca30000 	sw	v1,0(a1)
1000704c:	aca30004 	sw	v1,4(a1)
10007050:	03e00008 	jr	ra
10007054:	00000000 	sll	zero,zero,0x0

Disassembly of section .text.input_read:

10007058 <input_read>:
10007058:	27bdffe0 	addiu	sp,sp,-32
1000705c:	afb10018 	sw	s1,24(sp)
10007060:	3c111021 	lui	s1,0x1021
10007064:	822284f0 	lb	v0,-31504(s1)
10007068:	afbf001c 	sw	ra,28(sp)
1000706c:	afb00014 	sw	s0,20(sp)
10007070:	10400010 	beqz	v0,100070b4 <input_read+0x5c>
10007074:	00000000 	sll	zero,zero,0x0
10007078:	3c03100e 	lui	v1,0x100e
1000707c:	00021080 	sll	v0,v0,0x2
10007080:	24636ba0 	addiu	v1,v1,27552
10007084:	00431021 	addu	v0,v0,v1
10007088:	8c420000 	lw	v0,0(v0)
1000708c:	8fbf001c 	lw	ra,28(sp)
10007090:	8fb00014 	lw	s0,20(sp)
10007094:	a22084f0 	sb	zero,-31504(s1)
10007098:	aca20004 	sw	v0,4(a1)
1000709c:	8fb10018 	lw	s1,24(sp)
100070a0:	24020008 	addiu	v0,zero,8
100070a4:	aca00000 	sw	zero,0(a1)
100070a8:	27bd0020 	addiu	sp,sp,32
100070ac:	03e00008 	jr	ra
100070b0:	00000000 	sll	zero,zero,0x0
100070b4:	00a08025 	or	s0,a1,zero
100070b8:	0c001af0 	jal	10006bc0 <in_byte>
100070bc:	00000000 	sll	zero,zero,0x0
100070c0:	3c04100e 	lui	a0,0x100e
100070c4:	00021880 	sll	v1,v0,0x2
100070c8:	24846ba0 	addiu	a0,a0,27552
100070cc:	00641821 	addu	v1,v1,a0
100070d0:	8c630000 	lw	v1,0(v1)
100070d4:	a22284f0 	sb	v0,-31504(s1)
100070d8:	24020001 	addiu	v0,zero,1
100070dc:	ae020000 	sw	v0,0(s0)
100070e0:	ae030004 	sw	v1,4(s0)
100070e4:	8fbf001c 	lw	ra,28(sp)
100070e8:	8fb10018 	lw	s1,24(sp)
100070ec:	8fb00014 	lw	s0,20(sp)
100070f0:	24020008 	addiu	v0,zero,8
100070f4:	27bd0020 	addiu	sp,sp,32
100070f8:	03e00008 	jr	ra
100070fc:	00000000 	sll	zero,zero,0x0

Disassembly of section .text.video_write:

10007100 <video_write>:
10007100:	24020002 	addiu	v0,zero,2
10007104:	14820045 	bne	a0,v0,1000721c <video_write+0x11c>
10007108:	00000000 	sll	zero,zero,0x0
1000710c:	8ca80000 	lw	t0,0(a1)
10007110:	8cad000c 	lw	t5,12(a1)
10007114:	3c021021 	lui	v0,0x1021
10007118:	8c4c84fc 	lw	t4,-31492(v0)
1000711c:	010d1821 	addu	v1,t0,t5
10007120:	006c182a 	slt	v1,v1,t4
10007124:	8ca70004 	lw	a3,4(a1)
10007128:	8cae0010 	lw	t6,16(a1)
1000712c:	8ca90008 	lw	t1,8(a1)
10007130:	10600037 	beqz	v1,10007210 <video_write+0x110>
10007134:	00000000 	sll	zero,zero,0x0
10007138:	01a0c025 	or	t8,t5,zero
1000713c:	19c00031 	blez	t6,10007204 <video_write+0x104>
10007140:	00000000 	sll	zero,zero,0x0
10007144:	71871002 	mul	v0,t4,a3
10007148:	3c031021 	lui	v1,0x1021
1000714c:	00481021 	addu	v0,v0,t0
10007150:	8c688500 	lw	t0,-31488(v1)
10007154:	00021040 	sll	v0,v0,0x1
10007158:	3c031021 	lui	v1,0x1021
1000715c:	8c6f84f8 	lw	t7,-31496(v1)
10007160:	000d6880 	sll	t5,t5,0x2
10007164:	000c6040 	sll	t4,t4,0x1
10007168:	01024021 	addu	t0,t0,v0
1000716c:	01c77021 	addu	t6,t6,a3
10007170:	0018c840 	sll	t9,t8,0x1
10007174:	240bfff0 	addiu	t3,zero,-16
10007178:	10000006 	beqz	zero,10007194 <video_write+0x94>
1000717c:	00000000 	sll	zero,zero,0x0
10007180:	24e70001 	addiu	a3,a3,1
10007184:	012d4821 	addu	t1,t1,t5
10007188:	010c4021 	addu	t0,t0,t4
1000718c:	11c7001d 	beq	t6,a3,10007204 <video_write+0x104>
10007190:	00000000 	sll	zero,zero,0x0
10007194:	00ef102a 	slt	v0,a3,t7
10007198:	1040fff9 	beqz	v0,10007180 <video_write+0x80>
1000719c:	00000000 	sll	zero,zero,0x0
100071a0:	01002825 	or	a1,t0,zero
100071a4:	1b00fff6 	blez	t8,10007180 <video_write+0x80>
100071a8:	00000000 	sll	zero,zero,0x0
100071ac:	01203025 	or	a2,t1,zero
100071b0:	01195021 	addu	t2,t0,t9
100071b4:	8cc30000 	lw	v1,0(a2)
100071b8:	24a50002 	addiu	a1,a1,2
100071bc:	00032202 	srl	a0,v1,0x8
100071c0:	00031103 	sra	v0,v1,0x4
100071c4:	008b2024 	and	a0,a0,t3
100071c8:	308400ff 	andi	a0,a0,0xff
100071cc:	3042000f 	andi	v0,v0,0xf
100071d0:	00031b02 	srl	v1,v1,0xc
100071d4:	00441025 	or	v0,v0,a0
100071d8:	30630f00 	andi	v1,v1,0xf00
100071dc:	00431025 	or	v0,v0,v1
100071e0:	a4a2fffe 	sh	v0,-2(a1)
100071e4:	24c60004 	addiu	a2,a2,4
100071e8:	14aafff2 	bne	a1,t2,100071b4 <video_write+0xb4>
100071ec:	00000000 	sll	zero,zero,0x0
100071f0:	24e70001 	addiu	a3,a3,1
100071f4:	012d4821 	addu	t1,t1,t5
100071f8:	010c4021 	addu	t0,t0,t4
100071fc:	15c7ffe5 	bne	t6,a3,10007194 <video_write+0x94>
10007200:	00000000 	sll	zero,zero,0x0
10007204:	24020018 	addiu	v0,zero,24
10007208:	03e00008 	jr	ra
1000720c:	00000000 	sll	zero,zero,0x0
10007210:	0188c023 	subu	t8,t4,t0
10007214:	1000ffc9 	beqz	zero,1000713c <video_write+0x3c>
10007218:	00000000 	sll	zero,zero,0x0
1000721c:	00001025 	or	v0,zero,zero
10007220:	03e00008 	jr	ra
10007224:	00000000 	sll	zero,zero,0x0

Disassembly of section .text._device:

10007228 <_device>:
10007228:	2484ffff 	addiu	a0,a0,-1
1000722c:	2c820003 	sltiu	v0,a0,3
10007230:	10400007 	beqz	v0,10007250 <_device+0x28>
10007234:	00000000 	sll	zero,zero,0x0
10007238:	3c02100e 	lui	v0,0x100e
1000723c:	00042100 	sll	a0,a0,0x4
10007240:	24427220 	addiu	v0,v0,29216
10007244:	00441021 	addu	v0,v0,a0
10007248:	03e00008 	jr	ra
1000724c:	00000000 	sll	zero,zero,0x0
10007250:	00001025 	or	v0,zero,zero
10007254:	03e00008 	jr	ra
10007258:	00000000 	sll	zero,zero,0x0

Disassembly of section .text._ioe_init:

1000725c <_ioe_init>:
1000725c:	3c021021 	lui	v0,0x1021
10007260:	3c035000 	lui	v1,0x5000
10007264:	ac438500 	sw	v1,-31488(v0)
10007268:	3c021021 	lui	v0,0x1021
1000726c:	24030190 	addiu	v1,zero,400
10007270:	ac4384fc 	sw	v1,-31492(v0)
10007274:	3c021021 	lui	v0,0x1021
10007278:	2403012c 	addiu	v1,zero,300
1000727c:	ac4384f8 	sw	v1,-31496(v0)
10007280:	00001025 	or	v0,zero,zero
10007284:	03e00008 	jr	ra
10007288:	00000000 	sll	zero,zero,0x0
